
.MAIN.  Commodore 6502ASM V072882    Page 1
   JUPITERLANDER20.asm

Error Addr  Code          Seq   Source statement

.MAIN.  Commodore 6502ASM V072882    Page 2
   JUPITERLANDER20.asm

Error Addr  Code          Seq   Source statement

                            3   ;*********************************
                            4   ; SET TUNE? = 1 TO INCLUDE VIC MUSIC
                            5   ;*********************************
            =0001           6   TUNE1 = 1 ;GAME START TUNE
            =0001           7   TUNE2 = 1 ;BONUS TIME
            =0001           8   TUNE3 = 1 ;SORRY NO BONUS TUNE
                            9   ;********************************
            =A000          10   *=$A000
                           11   ;********************************
                           12   ; EXTERNAL ADDRESS EQUATES
                           13   ;********************************
            =FF8A          14   RESTOR=$FF8A
                           15   ;********************************
                           16   ;
                           17   ;********************************
            =900A          18   VICCRA = $900A
            =900B          19   VICCRB = $900B
            =900C          20   VICCRC = $900C
            =900D          21   VICRD  = $900D
            =900E          22   VICCRE = $900E
            =900F          23   VICCRF = $900F
                           24   ;********************************`
                           25   ;
                           26   ;********************************
     A000   A01F           27   ZZ8000 .WORD XXA01F ;$A01F
     A002   A009           28   ZZ8002 .WORD ZZA009 ;$A009
                           29   ;********************************
                           30   ; CARTRIDGE AUTOSTART ID
                           31   ;********************************
                           32   ;      .BYTE 'A0','C'|$80,'B'|$80,'M'|$80
     A004   41 30 C3       33   	   .BYTE $41,$30,$C3,$C2,$CD
     A007   C2 CD 
                           34   ;********************************
                           35   ; RETURN FROM IRQ INTERRUPT
                           36   ;********************************
     A009   68             37   ZZA009  PLA
     A00A   A8             38   	    TAY
     A00B   68             39           PLA
     A00C   AA             40           TAX
     A00D   68             41           PLA
     A00E   40             42           RTI
                           43   ;********************************
                           44   ; VIC REGISTERS
                           45   ;********************************
     A00F   03             46   XXA00F .BYTE $03
     A010   1C             47          .BYTE $1C
     A011   17             48          .BYTE $17
     A012   2E             49          .BYTE $2E
     A013   00             50          .BYTE $00
     A014   FD             51          .BYTE $FD
.MAIN.  Commodore 6502ASM V072882    Page 2-1
   JUPITERLANDER20.asm

Error Addr  Code          Seq   Source statement

     A015   00             52          .BYTE $00
     A016   00             53          .BYTE $00
     A017   00             54          .BYTE $00
     A018   00             55          .BYTE $00
     A019   00             56          .BYTE $00
     A01A   00             57          .BYTE $00
     A01B   00             58          .BYTE $00
     A01C   00             59          .BYTE $00
     A01D   6F             60          .BYTE $6F
     A01E   08             61          .BYTE $08
                           62   ;********************************
                           63   ;
                           64   ;********************************
     A01F   A2 FA          65   XXA01F LDX #$FA
     A021   9A             66          TXS
     A022   D8             67          CLD
     A023   78             68          SEI
     A024   20 FF8A        69          JSR RESTOR
     A027   A2 0F          70          LDX #$0F
                           71   ;********************************
                           72   ; SETUP INITIAL VIC REGISTERS
                           73   ;********************************
     A029   BD A00F        74   XXA029 LDA XXA00F,X
     A02C   9D 9000        75          STA $9000,X
     A02F   CA             76          DEX
     A030   10 F7          77          BPL XXA029
                           78   ;********************************
                           79   ; SETUP INITIAL VIA REGISTERS
                           80   ;********************************
     A032   A9 00          81          LDA #$00
     A034   8D 911E        82          STA $911E
     A037   A9 C0          83          LDA #$C0
     A039   8D 912E        84          STA $912E
     A03C   A9 40          85          LDA #$40      ;'@'
     A03E   8D 911B        86          STA $911B
     A041   8D 912B        87          STA $912B
     A044   A9 FF          88          LDA #$FF
     A046   8D 9122        89          STA $9122
     A049   A9 80          90          LDA #$80
     A04B   8D 9113        91          STA $9113
     A04E   A9 82          92          LDA #$82
     A050   8D 911E        93          STA $911E
     A053   A9 89          94          LDA #$89
     A055   8D 9124        95          STA $9124
     A058   A9 42          96          LDA #$42      ;'B'
     A05A   8D 9125        97          STA $9125
                           98   ;********************************
                           99   ; SETUP IRQ INTERRUPT VECTOR
                          100   ;********************************
     A05D   A9 4C         101          LDA #$4C      ;'L'
.MAIN.  Commodore 6502ASM V072882    Page 2-2
   JUPITERLANDER20.asm

Error Addr  Code          Seq   Source statement

     A05F   8D 0314       102          STA $0314
     A062   A9 AE         103          LDA #$AE
     A064   8D 0315       104          STA $0315
                          105   ;********************************
                          106   ; SETUP INITIAL VARAIBLES
                          107   ;********************************
     A067   A9 00         108          LDA #$00
     A069   85 1E         109          STA $1E
     A06B   85 1F         110          STA $1F
     A06D   85 27         111          STA $27
                          112   ;********************************
                          113   ; DISPLAY INSTRUCTION SCREEN
                          114   ;********************************
                          115   	
     A06F   20 B031       116          JSR XXB031
                          117   ;
     A072   4C AB83       118   XXA072 JMP XXAB83
                          119   ;********************************
                          120   ; SIMULATED GAME PLAY
                          121   ;********************************
     A075   78            122   XXA075 SEI
     A076   A9 00         123          LDA #$00
     A078   85 26         124          STA $26
     A07A   A9 0F         125          LDA #$0F
     A07C   8D 900E       126          STA VICCRE
     A07F   20 B05D       127          JSR XXB05D
     A082   A9 08         128          LDA #$08
     A084   8D 900F       129          STA VICCRF
     A087   A9 FF         130          LDA #$FF
     A089   85 16         131          STA $16
     A08B   85 17         132          STA $17
     A08D   A9 00         133          LDA #$00
     A08F   85 19         134          STA $19
     A091   85 1C         135          STA $1C
     A093   85 1D         136          STA $1D
     A095   85 25         137          STA $25
                          138   ;
                          139   ; DISPLAY SCORE
                          140   ;
     A097   20 B0E8       141          JSR XXB0E8
                          142   ;
     A09A   A9 01         143          LDA #$01
     A09C   85 24         144          STA $24
     A09E   A6 19         145   XXA09E LDX $19
     A0A0   E0 10         146          CPX #$10
     A0A2   F0 01         147          BEQ XXA0A5
     A0A4   E8            148          INX
     A0A5   86 19         149   XXA0A5 STX $19
     A0A7   BD A0AD       150          LDA ZZA0AC+1,X ;XXA0AD,X
     A0AA   85 18         151          STA $18
.MAIN.  Commodore 6502ASM V072882    Page 2-3
   JUPITERLANDER20.asm

Error Addr  Code          Seq   Source statement

     A0AC   D0 10         152   ZZA0AC BNE XXA0BE
                          153   ;********************************
                          154   ; SEED FOR INITIAL CONDITIONS OF
                          155   ; LANDER VERTICAL VELOCITY
                          156   ;********************************
     A0AE   04            157   ZZA0AE .BYTE $04
     A0AF   05            158          .BYTE $05
     A0B0   04            159          .BYTE $04
     A0B1   05            160          .BYTE $05
     A0B2   06            161          .BYTE $06
     A0B3   05            162          .BYTE $05
     A0B4   06            163          .BYTE $06
     A0B5   06            164          .BYTE $06
     A0B6   06            165          .BYTE $06
     A0B7   07            166          .BYTE $07
     A0B8   08            167          .BYTE $08
     A0B9   07            168          .BYTE $07
     A0BA   07            169          .BYTE $07
     A0BB   08            170          .BYTE $08
     A0BC   09            171          .BYTE $09
     A0BD   09            172          .BYTE $09
                          173   ;********************************
                          174   ; ENTRY POINT FOR START GAME CYCLE
                          175   ;********************************
     A0BE   A9 FF         176   XXA0BE LDA #$FF
     A0C0   85 20         177          STA $20
     A0C2   85 2D         178          STA $2D
     A0C4   A9 08         179          LDA #$08
     A0C6   8D 1C16       180          STA $1C16
                          181   ;
     A0C9   A9 C8         182          LDA #$C8
     A0CB   85 0A         183          STA $0A
     A0CD   A9 10         184          LDA #$10
     A0CF   85 0B         185          STA $0B
     A0D1   A9 14         186          LDA #$14
     A0D3   A2 00         187          LDX #$00
     A0D5   86 0C         188          STX $0C
     A0D7   85 0D         189          STA $0D
     A0D9   86 0E         190          STX $0E
     A0DB   A9 54         191          LDA #$54      ;'T'
     A0DD   86 11         192          STX $11
     A0DF   85 12         193          STA $12
     A0E1   86 13         194          STX $13
     A0E3   A9 00         195          LDA #$00
     A0E5   85 14         196          STA $14
     A0E7   85 15         197          STA $15
     A0E9   85 10         198          STA $10
     A0EB   A9 FF         199          LDA #$FF
     A0ED   85 0F         200          STA $0F
     A0EF   20 AEF3       201          JSR XXAEF3
.MAIN.  Commodore 6502ASM V072882    Page 2-4
   JUPITERLANDER20.asm

Error Addr  Code          Seq   Source statement

     A0F2   A9 00         202          LDA #$00
     A0F4   85 1A         203          STA $1A
     A0F6   85 1B         204          STA $1B
     A0F8   20 A130       205          JSR XXA130
                          206   ;********************************
                          207   ; PLAY TUNE 1 START OF PLAY
                          208   ;********************************
            =0001         209    .IFN TUNE1 <
     A0FB   20 A239       210          JSR XXA239
                          211    .ELSE
                          212   	   NOP
                          213   	   NOP
                          214   	   NOP
                          215    .ENDIF
                          216   ;********************************
                          217   ;
                          218   ;********************************
     A0FE   20 A130       219   XXA0FE JSR XXA130
     A101   A5 21         220          LDA $21
     A103   F0 03         221          BEQ XXA108
     A105   4C A7DC       222          JMP XXA7DC
                          223   ;********************************
                          224   ;
                          225   ;********************************
     A108   A5 22         226   XXA108 LDA $22
     A10A   F0 03         227          BEQ XXA10F
     A10C   4C A9B3       228          JMP XXA9B3
                          229   ;********************************
                          230   ;
                          231   ;********************************
     A10F   20 A254       232   XXA10F JSR XXA254
     A112   20 AEF3       233          JSR XXAEF3
     A115   A5 13         234          LDA $13
     A117   D0 09         235          BNE XXA122
     A119   A5 12         236          LDA $12
     A11B   C9 20         237          CMP #$20      ;' '
     A11D   B0 03         238          BCS XXA122
     A11F   4C A960       239          JMP XXA960
                          240   ;********************************
                          241   ;
                          242   ;********************************
     A122   A2 03         243   XXA122 LDX #$03
     A124   A5 20         244          LDA $20
     A126   F0 02         245          BEQ XXA12A
     A128   A2 02         246          LDX #$02
     A12A   20 B0CC       247   XXA12A JSR DELAY1
     A12D   4C A0FE       248          JMP XXA0FE
                          249   ;********************************
                          250   ;
                          251   ;********************************
.MAIN.  Commodore 6502ASM V072882    Page 2-5
   JUPITERLANDER20.asm

Error Addr  Code          Seq   Source statement

            =0020         252   SCNID = $20
     A130   20 A174       253   XXA130 JSR XXA174 ;DETERMINE SCREEN ID
     A133   C4 20         254          CPY $20
     A135   F0 0D         255          BEQ XXA144
     A137   84 20         256          STY $20
     A139   20 AF6B       257          JSR XXAF6B
     A13C   A9 01         258          LDA #$01
     A13E   85 2E         259          STA $2E
     A140   A9 00         260          LDA #$00
     A142   85 25         261          STA $25
     A144   A6 20         262   XXA144 LDX $20
     A146   D0 13         263          BNE XXA15B
     A148   A5 0E         264          LDA $0E
     A14A   4A            265          LSR A
     A14B   A5 0D         266          LDA $0D
     A14D   6A            267          ROR A
     A14E   85 29         268          STA $29
     A150   A5 13         269          LDA $13
     A152   4A            270          LSR A
     A153   A5 12         271          LDA $12
     A155   6A            272          ROR A
     A156   85 2A         273          STA $2A
     A158   4C A328       274          JMP XXA328
                          275   ;********************************
                          276   ;
                          277   ;********************************
     A15B   A5 0D         278   XXA15B LDA $0D
     A15D   38            279          SEC
     A15E   FD A16D       280          SBC ZZA16E-1,X ;ZZA16B+2,X ;XXA16D,X
     A161   85 29         281          STA $29
     A163   A5 12         282          LDA $12
     A165   38            283          SEC
     A166   FD A170       284          SBC XXA170,X
     A169   85 2A         285          STA $2A
     A16B   4C A3BE       286   ZZA16B JMP XXA3BE
                          287   ;********************************
                          288   ;
                          289   ;********************************
     A16E   00            290   ZZA16E .BYTE $00
     A16F   88            291          .BYTE $88
     A170   B0            292   XXA170 .BYTE $B0
     A171   D0            293          .BYTE $D0
     A172   20            294   XXA16D .BYTE $20
     A173   80            295          .BYTE $80
                          296   ;********************************
                          297   ; DETERMINE SCREEN LOCATIONS
                          298   ; FOR DISPLAY OF 1 OF 4 POSSIBLE
                          299   ; GAME SCREENS
                          300   ;********************************
     A174   A5 12         301   XXA174 LDA $12
.MAIN.  Commodore 6502ASM V072882    Page 2-6
   JUPITERLANDER20.asm

Error Addr  Code          Seq   Source statement

     A176   C9 F0         302          CMP #$F0
     A178   A5 13         303          LDA $13
     A17A   E9 00         304          SBC #$00
     A17C   90 0D         305          BCC XXA18B
     A17E   A5 0D         306          LDA $0D
     A180   C9 82         307          CMP #$82
     A182   A5 0E         308          LDA $0E
     A184   E9 00         309          SBC #$00
     A186   B0 03         310          BCS XXA18B
     A188   A0 01         311          LDY #$01    ;SCREEN ID = 1 "X 5"
     A18A   60            312          RTS
                          313   ;********************************
                          314   ;
                          315   ;********************************
     A18B   A5 0D         316   XXA18B LDA $0D
     A18D   C9 90         317          CMP #$90
     A18F   A5 0E         318          LDA $0E
     A191   E9 00         319          SBC #$00
     A193   90 17         320          BCC XXA1AC
     A195   A5 0D         321          LDA $0D
     A197   C9 10         322          CMP #$10
     A199   A5 0E         323          LDA $0E
     A19B   E9 01         324          SBC #$01
     A19D   B0 0D         325          BCS XXA1AC
     A19F   A5 12         326          LDA $12
     A1A1   C9 8E         327          CMP #$8E
     A1A3   A5 13         328          LDA $13
     A1A5   E9 00         329          SBC #$00
     A1A7   B0 03         330          BCS XXA1AC
     A1A9   A0 02         331          LDY #$02   ;SCREEN ID = 2 "X 2"
     A1AB   60            332          RTS
                          333   ;********************************
                          334   ;
                          335   ;********************************
     A1AC   A5 0D         336   XXA1AC LDA $0D
     A1AE   C9 E0         337          CMP #$E0
     A1B0   A5 0E         338          LDA $0E
     A1B2   E9 00         339          SBC #$00
     A1B4   90 0D         340          BCC XXA1C3
     A1B6   A5 12         341          LDA $12
     A1B8   C9 A2         342          CMP #$A2
     A1BA   A5 13         343          LDA $13
     A1BC   E9 00         344          SBC #$00
     A1BE   90 03         345          BCC XXA1C3
     A1C0   A0 03         346          LDY #$03   ;SCREEN ID = 3 "X 10"
     A1C2   60            347          RTS
                          348   ;********************************
                          349   ;
                          350   ;********************************
     A1C3   A0 00         351   XXA1C3 LDY #$00      ;SCREEN ID =0 MAIN GAME SCREEN
.MAIN.  Commodore 6502ASM V072882    Page 2-7
   JUPITERLANDER20.asm

Error Addr  Code          Seq   Source statement

     A1C5   60            352          RTS
                          353   ;********************************
                          354   ; START OF GAME PLAY TUNE1
                          355   ;********************************
                          356   ;.LIB VICMUSIC1.ASM
     A1C6   C6            357   XXA1C6 .BYTE $C6
     A1C7   D9            358          .BYTE $D9
     A1C8   00            359          .BYTE $00
     A1C9   D9            360          .BYTE $D9
     A1CA   E3            361          .BYTE $E3
     A1CB   E3            362          .BYTE $E3
     A1CC   E3            363          .BYTE $E3
     A1CD   E3            364          .BYTE $E3
     A1CE   E3            365          .BYTE $E3
     A1CF   E3            366          .BYTE $E3
     A1D0   E3            367          .BYTE $E3
     A1D1   E3            368          .BYTE $E3
     A1D2   E3            369          .BYTE $E3
     A1D3   E3            370          .BYTE $E3
     A1D4   E3            371          .BYTE $E3
     A1D5   E3            372          .BYTE $E3
     A1D6   E3            373          .BYTE $E3
     A1D7   E3            374          .BYTE $E3
     A1D8   E7            375          .BYTE $E7
     A1D9   E3            376          .BYTE $E3
     A1DA   E7            377          .BYTE $E7
     A1DB   EC            378          .BYTE $EC
     A1DC   EC            379          .BYTE $EC
     A1DD   EC            380          .BYTE $EC
     A1DE   EC            381          .BYTE $EC
     A1DF   EC            382          .BYTE $EC
     A1E0   EC            383          .BYTE $EC
     A1E1   EC            384          .BYTE $EC
     A1E2   EC            385          .BYTE $EC
     A1E3   EC            386          .BYTE $EC
     A1E4   EC            387          .BYTE $EC
     A1E5   EC            388          .BYTE $EC
     A1E6   EC            389          .BYTE $EC
     A1E7   EC            390          .BYTE $EC
     A1E8   EC            391          .BYTE $EC
     A1E9   EC            392          .BYTE $EC
     A1EA   00            393          .BYTE $00
     A1EB   00            394          .BYTE $00
     A1EC   C6            395          .BYTE $C6
     A1ED   D9            396          .BYTE $D9
     A1EE   00            397          .BYTE $00
     A1EF   D9            398          .BYTE $D9
     A1F0   E3            399          .BYTE $E3
     A1F1   E3            400          .BYTE $E3
     A1F2   E3            401          .BYTE $E3
.MAIN.  Commodore 6502ASM V072882    Page 2-8
   JUPITERLANDER20.asm

Error Addr  Code          Seq   Source statement

     A1F3   E3            402          .BYTE $E3
     A1F4   E3            403          .BYTE $E3
     A1F5   E3            404          .BYTE $E3
     A1F6   E3            405          .BYTE $E3
     A1F7   E3            406          .BYTE $E3
     A1F8   E3            407          .BYTE $E3
     A1F9   E3            408          .BYTE $E3
     A1FA   E3            409          .BYTE $E3
     A1FB   E3            410          .BYTE $E3
     A1FC   E3            411          .BYTE $E3
     A1FD   E3            412          .BYTE $E3
     A1FE   E7            413          .BYTE $E7
     A1FF   E3            414          .BYTE $E3
     A200   E7            415          .BYTE $E7
     A201   EC            416          .BYTE $EC
     A202   EC            417          .BYTE $EC
     A203   EC            418          .BYTE $EC
     A204   EC            419          .BYTE $EC
     A205   EC            420          .BYTE $EC
     A206   EC            421          .BYTE $EC
     A207   EC            422          .BYTE $EC
     A208   EC            423          .BYTE $EC
     A209   EC            424          .BYTE $EC
     A20A   EC            425          .BYTE $EC
     A20B   EC            426          .BYTE $EC
     A20C   EC            427          .BYTE $EC
     A20D   EC            428          .BYTE $EC
     A20E   EC            429          .BYTE $EC
     A20F   EC            430          .BYTE $EC
     A210   00            431          .BYTE $00
     A211   00            432          .BYTE $00
     A212   F1            433          .BYTE $F1
     A213   00            434          .BYTE $00
     A214   00            435          .BYTE $00
     A215   00            436          .BYTE $00
     A216   00            437          .BYTE $00
     A217   00            438          .BYTE $00
     A218   00            439          .BYTE $00
     A219   F1            440          .BYTE $F1
     A21A   00            441          .BYTE $00
     A21B   00            442          .BYTE $00
     A21C   00            443          .BYTE $00
     A21D   00            444          .BYTE $00
     A21E   00            445          .BYTE $00
     A21F   F1            446          .BYTE $F1
     A220   00            447          .BYTE $00
     A221   00            448          .BYTE $00
     A222   00            449          .BYTE $00
     A223   00            450          .BYTE $00
     A224   F1            451          .BYTE $F1
.MAIN.  Commodore 6502ASM V072882    Page 2-9
   JUPITERLANDER20.asm

Error Addr  Code          Seq   Source statement

     A225   00            452          .BYTE $00
     A226   00            453          .BYTE $00
     A227   00            454          .BYTE $00
     A228   F1            455          .BYTE $F1
     A229   00            456          .BYTE $00
     A22A   00            457          .BYTE $00
     A22B   F1            458          .BYTE $F1
     A22C   00            459          .BYTE $00
     A22D   F1            460          .BYTE $F1
     A22E   00            461          .BYTE $00
     A22F   F1            462          .BYTE $F1
     A230   00            463          .BYTE $00
     A231   F1            464          .BYTE $F1
     A232   00            465          .BYTE $00
     A233   F1            466          .BYTE $F1
     A234   00            467          .BYTE $00
     A235   F1            468          .BYTE $F1
     A236   00            469          .BYTE $00
     A237   F1            470          .BYTE $F1
     A238   00            471          .BYTE $00
                          472   ;********************************
                          473   ; PLAY TUNE 1 START OF PLAY
                          474   ;********************************
     A239   A5 24         475   XXA239 LDA $24
     A23B   F0 16         476          BEQ XXA253
     A23D   A0 00         477          LDY #$00
     A23F   B9 A1C6       478   XXA23F LDA XXA1C6,Y
     A242   8D 900C       479          STA VICCRC
     A245   A2 07         480          LDX #$07
     A247   20 B0CC       481          JSR DELAY1
     A24A   C8            482          INY
     A24B   C0 73         483          CPY #$73
     A24D   D0 F0         484          BNE XXA23F
     A24F   A9 00         485          LDA #$00
     A251   85 24         486          STA $24
     A253   60            487   XXA253 RTS
                          488   ;********************************
                          489   ;
                          490   ;********************************
     A254   20 AEAD       491   XXA254 JSR XXAEAD
     A257   A5 17         492   XXA257 LDA $17
     A259   D0 04         493          BNE XXA25F
     A25B   85 1B         494          STA $1B
     A25D   85 1A         495          STA $1A
     A25F   A0 00         496   XXA25F LDY #$00
     A261   A5 1B         497          LDA $1B
     A263   F0 2E         498          BEQ XXA293
     A265   A0 F7         499          LDY #$F7
     A267   C9 02         500          CMP #$02
     A269   A9 06         501          LDA #$06
.MAIN.  Commodore 6502ASM V072882    Page 2-10
   JUPITERLANDER20.asm

Error Addr  Code          Seq   Source statement

     A26B   A2 00         502          LDX #$00
     A26D   90 04         503          BCC XXA273
     A26F   A9 FA         504          LDA #$FA
     A271   A2 FF         505          LDX #$FF
     A273   18            506   XXA273 CLC
     A274   65 0F         507          ADC $0F
     A276   85 0F         508          STA $0F
     A278   8A            509          TXA
     A279   65 10         510          ADC $10
     A27B   85 10         511          STA $10
     A27D   A5 16         512          LDA $16
     A27F   38            513          SEC
     A280   E9 1E         514          SBC #$1E
     A282   85 16         515          STA $16
     A284   A5 17         516          LDA $17
     A286   E9 00         517          SBC #$00
     A288   85 17         518          STA $17
     A28A   E6 23         519          INC $23
     A28C   A5 23         520          LDA $23
     A28E   29 01         521          AND #$01
     A290   D0 01         522          BNE XXA293
     A292   A8            523          TAY
     A293   8C 900B       524   XXA293 STY VICCRB
     A296   A5 0F         525          LDA $0F
     A298   18            526          CLC
     A299   65 0C         527          ADC $0C
     A29B   85 0C         528          STA $0C
     A29D   A5 10         529          LDA $10
     A29F   65 0D         530          ADC $0D
     A2A1   85 0D         531          STA $0D
     A2A3   08            532          PHP
     A2A4   A5 10         533          LDA $10
     A2A6   0A            534          ASL A
     A2A7   A9 FF         535          LDA #$FF
     A2A9   B0 02         536          BCS XXA2AD
     A2AB   A9 00         537          LDA #$00
     A2AD   28            538   XXA2AD PLP
     A2AE   65 0E         539          ADC $0E
     A2B0   85 0E         540          STA $0E
     A2B2   A5 1A         541          LDA $1A
     A2B4   D0 08         542          BNE XXA2BE
     A2B6   8D 900A       543          STA VICCRA
     A2B9   8D 900D       544          STA VICRD
     A2BC   F0 40         545          BEQ XXA2FE
     A2BE   AA            546   XXA2BE TAX
     A2BF   A9 03         547          LDA #$03
     A2C1   A0 C8         548          LDY #$C8
     A2C3   CA            549          DEX
     A2C4   F0 0B         550          BEQ XXA2D1
     A2C6   A9 06         551          LDA #$06
.MAIN.  Commodore 6502ASM V072882    Page 2-11
   JUPITERLANDER20.asm

Error Addr  Code          Seq   Source statement

     A2C8   A0 D2         552          LDY #$D2
     A2CA   CA            553          DEX
     A2CB   F0 04         554          BEQ XXA2D1
     A2CD   A9 0C         555          LDA #$0C
     A2CF   A0 DC         556          LDY #$DC
     A2D1   48            557   XXA2D1 PHA
     A2D2   0A            558          ASL A
     A2D3   0A            559          ASL A
     A2D4   0A            560          ASL A
     A2D5   69 0F         561          ADC #$0F
     A2D7   85 35         562          STA $35
     A2D9   A5 16         563          LDA $16
     A2DB   38            564          SEC
     A2DC   E5 35         565          SBC $35
     A2DE   85 16         566          STA $16
     A2E0   A5 17         567          LDA $17
     A2E2   E9 00         568          SBC #$00
     A2E4   85 17         569          STA $17
     A2E6   68            570          PLA
     A2E7   85 35         571          STA $35
     A2E9   A5 14         572          LDA $14
     A2EB   38            573          SEC
     A2EC   E5 35         574          SBC $35
     A2EE   85 14         575          STA $14
     A2F0   A5 15         576          LDA $15
     A2F2   E9 00         577          SBC #$00
     A2F4   85 15         578          STA $15
     A2F6   8C 900D       579          STY VICRD
     A2F9   A9 94         580          LDA #$94
     A2FB   8D 900A       581          STA VICCRA
     A2FE   A5 14         582   XXA2FE LDA $14
     A300   18            583          CLC
     A301   65 18         584          ADC $18
     A303   85 14         585          STA $14
     A305   A5 15         586          LDA $15
     A307   69 00         587          ADC #$00
     A309   85 15         588          STA $15
     A30B   A5 14         589          LDA $14
     A30D   18            590          CLC
     A30E   65 11         591          ADC $11
     A310   85 11         592          STA $11
     A312   A5 15         593          LDA $15
     A314   65 12         594          ADC $12
     A316   85 12         595          STA $12
     A318   08            596          PHP
     A319   A5 15         597          LDA $15
     A31B   0A            598          ASL A
     A31C   A9 FF         599          LDA #$FF
     A31E   B0 02         600          BCS XXA322
     A320   A9 00         601          LDA #$00
.MAIN.  Commodore 6502ASM V072882    Page 2-12
   JUPITERLANDER20.asm

Error Addr  Code          Seq   Source statement

     A322   28            602   XXA322 PLP
     A323   65 13         603          ADC $13
     A325   85 13         604          STA $13
     A327   60            605          RTS
                          606   ;********************************
                          607   ;
                          608   ;********************************
     A328   A9 00         609   XXA328 LDA #$00
     A32A   85 21         610          STA $21
     A32C   85 22         611          STA $22
     A32E   A5 29         612          LDA $29
     A330   29 07         613          AND #$07
     A332   85 30         614          STA $30
     A334   A5 2A         615          LDA $2A
     A336   29 07         616          AND #$07
     A338   85 2F         617          STA $2F
     A33A   20 A4C4       618          JSR XXA4C4
     A33D   A5 2E         619          LDA $2E
     A33F   D0 23         620          BNE XXA364
     A341   20 A46F       621          JSR XXA46F
     A344   A9 03         622          LDA #$03
     A346   85 35         623          STA $35
     A348   A2 00         624          LDX #$00
     A34A   A0 00         625   XXA34A LDY #$00
     A34C   B5 3A         626   XXA34C LDA $3A,X
     A34E   91 02         627          STA ($02),Y
     A350   E8            628          INX
     A351   C8            629          INY
     A352   C0 03         630          CPY #$03
     A354   D0 F6         631          BNE XXA34C
     A356   A5 02         632          LDA $02
     A358   69 16         633          ADC #$16
     A35A   85 02         634          STA $02
     A35C   90 02         635          BCC XXA360
     A35E   E6 03         636          INC $03
     A360   C6 35         637   XXA360 DEC $35
     A362   D0 E6         638          BNE XXA34A
     A364   A9 00         639   XXA364 LDA #$00
     A366   85 2E         640          STA $2E
     A368   A5 29         641          LDA $29
     A36A   85 2B         642          STA $2B
     A36C   A5 2A         643          LDA $2A
     A36E   85 2C         644          STA $2C
     A370   20 B11E       645          JSR XXB11E
     A373   20 A46F       646          JSR XXA46F
     A376   A2 48         647          LDX #$48      ;'H'
     A378   BD 0FFF       648   XXA378 LDA $0FFF,X
     A37B   9D 16FF       649          STA $16FF,X
     A37E   CA            650          DEX
     A37F   D0 F7         651          BNE XXA378
.MAIN.  Commodore 6502ASM V072882    Page 2-13
   JUPITERLANDER20.asm

Error Addr  Code          Seq   Source statement

     A381   A9 03         652          LDA #$03
     A383   85 35         653          STA $35
     A385   A9 60         654          LDA #$60
     A387   A2 00         655          LDX #$00
     A389   A0 00         656   XXA389 LDY #$00
     A38B   48            657   XXA38B PHA
     A38C   B1 02         658          LDA ($02),Y
     A38E   95 3A         659          STA $3A,X
     A390   F0 0F         660          BEQ XXA3A1
     A392   85 38         661          STA $38
     A394   68            662          PLA
     A395   48            663          PHA
     A396   85 39         664          STA $39
     A398   20 A78A       665          JSR XXA78A
     A39B   90 04         666          BCC XXA3A1
     A39D   A9 01         667          LDA #$01
     A39F   85 21         668          STA $21
     A3A1   68            669   XXA3A1 PLA
     A3A2   91 02         670          STA ($02),Y
     A3A4   E8            671          INX
     A3A5   18            672          CLC
     A3A6   69 01         673          ADC #$01
     A3A8   C8            674          INY
     A3A9   C0 03         675          CPY #$03
     A3AB   D0 DE         676          BNE XXA38B
     A3AD   48            677          PHA
     A3AE   A5 02         678          LDA $02
     A3B0   69 16         679          ADC #$16
     A3B2   85 02         680          STA $02
     A3B4   68            681          PLA
     A3B5   90 02         682          BCC XXA3B9
     A3B7   E6 03         683          INC $03
     A3B9   C6 35         684   XXA3B9 DEC $35
     A3BB   D0 CC         685          BNE XXA389
     A3BD   60            686          RTS
                          687   ;********************************
                          688   ;
                          689   ;********************************
     A3BE   A9 00         690   XXA3BE LDA #$00
     A3C0   85 21         691          STA $21
     A3C2   85 22         692          STA $22
     A3C4   A5 29         693          LDA $29
     A3C6   29 07         694          AND #$07
     A3C8   85 30         695          STA $30
     A3CA   A5 2A         696          LDA $2A
     A3CC   29 07         697          AND #$07
     A3CE   85 2F         698          STA $2F
     A3D0   20 A58F       699          JSR XXA58F
     A3D3   A5 2E         700          LDA $2E
     A3D5   D0 23         701          BNE XXA3FA
.MAIN.  Commodore 6502ASM V072882    Page 2-14
   JUPITERLANDER20.asm

Error Addr  Code          Seq   Source statement

     A3D7   20 A46F       702          JSR XXA46F
     A3DA   A9 05         703          LDA #$05
     A3DC   85 35         704          STA $35
     A3DE   A2 00         705          LDX #$00
     A3E0   A0 00         706   XXA3E0 LDY #$00
     A3E2   B5 3A         707   XXA3E2 LDA $3A,X
     A3E4   91 02         708          STA ($02),Y
     A3E6   E8            709          INX
     A3E7   C8            710          INY
     A3E8   C0 05         711          CPY #$05
     A3EA   D0 F6         712          BNE XXA3E2
     A3EC   A5 02         713          LDA $02
     A3EE   69 16         714          ADC #$16
     A3F0   85 02         715          STA $02
     A3F2   90 02         716          BCC XXA3F6
     A3F4   E6 03         717          INC $03
     A3F6   C6 35         718   XXA3F6 DEC $35
     A3F8   D0 E6         719          BNE XXA3E0
     A3FA   A9 00         720   XXA3FA LDA #$00
     A3FC   85 2E         721          STA $2E
     A3FE   A5 29         722          LDA $29
     A400   85 2B         723          STA $2B
     A402   A5 2A         724          LDA $2A
     A404   85 2C         725          STA $2C
     A406   20 B11E       726          JSR XXB11E
     A409   20 A46F       727          JSR XXA46F
     A40C   A2 C8         728          LDX #$C8
     A40E   BD 0FFF       729   XXA40E LDA $0FFF,X
     A411   9D 16FF       730          STA $16FF,X
     A414   CA            731          DEX
     A415   D0 F7         732          BNE XXA40E
     A417   A9 05         733          LDA #$05
     A419   85 35         734          STA $35
     A41B   A9 60         735          LDA #$60
     A41D   A2 00         736          LDX #$00
     A41F   A0 00         737   XXA41F LDY #$00
     A421   48            738   XXA421 PHA
     A422   B1 02         739          LDA ($02),Y
     A424   95 3A         740          STA $3A,X
     A426   F0 0F         741          BEQ XXA437
     A428   85 38         742          STA $38
     A42A   68            743          PLA
     A42B   48            744          PHA
     A42C   85 39         745          STA $39
     A42E   20 A78A       746          JSR XXA78A
     A431   90 04         747          BCC XXA437
     A433   A9 01         748          LDA #$01
     A435   85 21         749          STA $21
     A437   68            750   XXA437 PLA
     A438   91 02         751          STA ($02),Y
.MAIN.  Commodore 6502ASM V072882    Page 2-15
   JUPITERLANDER20.asm

Error Addr  Code          Seq   Source statement

     A43A   E8            752          INX
     A43B   18            753          CLC
     A43C   69 01         754          ADC #$01
     A43E   C8            755          INY
     A43F   C0 05         756          CPY #$05
     A441   D0 DE         757          BNE XXA421
     A443   48            758          PHA
     A444   A5 02         759          LDA $02
     A446   69 16         760          ADC #$16
     A448   85 02         761          STA $02
     A44A   68            762          PLA
     A44B   90 02         763          BCC XXA44F
     A44D   E6 03         764          INC $03
     A44F   C6 35         765   XXA44F DEC $35
     A451   D0 CC         766          BNE XXA41F
     A453   A5 2F         767          LDA $2F
     A455   D0 17         768          BNE XXA46E
     A457   A0 04         769          LDY #$04
     A459   A5 29         770          LDA $29
     A45B   29 07         771          AND #$07
     A45D   D0 01         772          BNE XXA460
     A45F   88            773          DEY
     A460   B9 004E       774   XXA460 LDA $004E,Y
     A463   C9 07         775          CMP #$07
     A465   D0 07         776          BNE XXA46E
     A467   88            777          DEY
     A468   10 F6         778          BPL XXA460
     A46A   A0 01         779          LDY #$01
     A46C   84 22         780          STY $22
     A46E   60            781   XXA46E RTS
                          782   ;********************************
                          783   ;
                          784   ;********************************
     A46F   A5 2C         785   XXA46F LDA $2C
     A471   4A            786          LSR A
     A472   4A            787          LSR A
     A473   4A            788          LSR A
     A474   AA            789          TAX
     A475   BD A48E       790          LDA XXA48E,X
     A478   85 02         791          STA $02
     A47A   BD A4A9       792          LDA XXA4A9,X
     A47D   85 03         793          STA $03
     A47F   A5 2B         794          LDA $2B
     A481   4A            795          LSR A
     A482   4A            796          LSR A
     A483   4A            797          LSR A
     A484   18            798          CLC
     A485   65 02         799          ADC $02
     A487   85 02         800          STA $02
     A489   90 02         801          BCC XXA48D
.MAIN.  Commodore 6502ASM V072882    Page 2-16
   JUPITERLANDER20.asm

Error Addr  Code          Seq   Source statement

     A48B   E6 03         802          INC $03
     A48D   60            803   XXA48D RTS
                          804   ;********************************
                          805   ;
                          806   ;********************************
     A48E   A4            807   XXA48E .BYTE $A4
     A48F   BB            808          .BYTE $BB
     A490   D2            809          .BYTE $D2
     A491   E9            810          .BYTE $E9
     A492   00            811          .BYTE $00
     A493   17            812          .BYTE $17
     A494   2E            813   XXA494 .BYTE $2E
     A495   45            814          .BYTE $45
     A496   5C            815          .BYTE $5C
     A497   73            816          .BYTE $73
     A498   8A            817          .BYTE $8A
     A499   A1            818          .BYTE $A1
     A49A   B8            819          .BYTE $B8
     A49B   CF            820          .BYTE $CF
     A49C   E6            821          .BYTE $E6
     A49D   FD            822          .BYTE $FD
     A49E   14            823          .BYTE $14
     A49F   2B            824          .BYTE $2B
     A4A0   42            825          .BYTE $42
     A4A1   59            826          .BYTE $59
     A4A2   70            827          .BYTE $70
     A4A3   87            828          .BYTE $87
     A4A4   9E            829          .BYTE $9E
     A4A5   B5            830          .BYTE $B5
     A4A6   CC            831          .BYTE $CC
     A4A7   E3            832          .BYTE $E3
     A4A8   FA            833          .BYTE $FA
     A4A9   1B            834   XXA4A9 .BYTE $1B
     A4AA   1B            835          .BYTE $1B
     A4AB   1B            836          .BYTE $1B
     A4AC   1B            837          .BYTE $1B
     A4AD   1C            838          .BYTE $1C
     A4AE   1C            839          .BYTE $1C
     A4AF   1C            840   XXA4AF .BYTE $1C
     A4B0   1C            841          .BYTE $1C
     A4B1   1C            842          .BYTE $1C
     A4B2   1C            843          .BYTE $1C
     A4B3   1C            844          .BYTE $1C
     A4B4   1C            845          .BYTE $1C
     A4B5   1C            846          .BYTE $1C
     A4B6   1C            847          .BYTE $1C
     A4B7   1C            848          .BYTE $1C
     A4B8   1C            849          .BYTE $1C
     A4B9   1D            850          .BYTE $1D
     A4BA   1D            851          .BYTE $1D
.MAIN.  Commodore 6502ASM V072882    Page 2-17
   JUPITERLANDER20.asm

Error Addr  Code          Seq   Source statement

     A4BB   1D            852          .BYTE $1D
     A4BC   1D            853          .BYTE $1D
     A4BD   1D            854          .BYTE $1D
     A4BE   1D            855          .BYTE $1D
     A4BF   1D            856          .BYTE $1D
     A4C0   1D            857          .BYTE $1D
     A4C1   1D            858          .BYTE $1D
     A4C2   1D            859          .BYTE $1D
     A4C3   1D            860          .BYTE $1D
                          861   ;********************************
                          862   ;
                          863   ;********************************
     A4C4   A5 1B         864   XXA4C4 LDA $1B
     A4C6   0A            865          ASL A
     A4C7   0A            866          ASL A
     A4C8   05 1A         867          ORA $1A
     A4CA   0A            868          ASL A
     A4CB   0A            869          ASL A
     A4CC   0A            870          ASL A
     A4CD   0A            871          ASL A
     A4CE   0A            872          ASL A
     A4CF   85 00         873          STA $00
     A4D1   A9 00         874          LDA #$00
     A4D3   69 00         875          ADC #$00
     A4D5   85 01         876          STA $01
     A4D7   A5 00         877          LDA $00
     A4D9   69 44         878          ADC #$44      ;'D'
     A4DB   85 00         879          STA $00
     A4DD   A5 01         880          LDA $01
     A4DF   69 B1         881          ADC #$B1
     A4E1   85 01         882          STA $01
     A4E3   A0 07         883          LDY #$07
     A4E5   A9 00         884   XXA4E5 LDA #$00
     A4E7   85 32         885          STA $32
     A4E9   98            886          TYA
     A4EA   48            887          PHA
     A4EB   18            888          CLC
     A4EC   69 08         889          ADC #$08
     A4EE   A8            890          TAY
     A4EF   B1 00         891          LDA ($00),Y
     A4F1   25 2D         892          AND $2D
     A4F3   11 0A         893          ORA ($0A),Y
     A4F5   85 31         894          STA $31
     A4F7   68            895          PLA
     A4F8   A8            896          TAY
     A4F9   B1 00         897          LDA ($00),Y
     A4FB   25 2D         898          AND $2D
     A4FD   11 0A         899          ORA ($0A),Y
     A4FF   A6 30         900          LDX $30
                          901   ;
.MAIN.  Commodore 6502ASM V072882    Page 2-18
   JUPITERLANDER20.asm

Error Addr  Code          Seq   Source statement

     A501   F0 08         902          BEQ XXA50B
     A503   4A            903   XXA503 LSR A
     A504   66 31         904          ROR $31
     A506   66 32         905          ROR $32
     A508   CA            906          DEX
     A509   D0 F8         907          BNE XXA503
     A50B   99 0055       908   XXA50B STA $0055,Y
     A50E   A5 31         909          LDA $31
     A510   99 005D       910          STA $005D,Y
     A513   A5 32         911          LDA $32
     A515   99 0065       912          STA $0065,Y
     A518   88            913          DEY
     A519   10 CA         914          BPL XXA4E5
     A51B   A0 17         915          LDY #$17
     A51D   A9 00         916   XXA51D LDA #$00
     A51F   85 32         917          STA $32
     A521   98            918          TYA
     A522   48            919          PHA
     A523   18            920          CLC
     A524   69 08         921          ADC #$08
     A526   A8            922          TAY
     A527   B1 00         923          LDA ($00),Y
     A529   25 2D         924          AND $2D
     A52B   11 0A         925          ORA ($0A),Y
     A52D   85 31         926          STA $31
     A52F   68            927          PLA
     A530   A8            928          TAY
     A531   B1 00         929          LDA ($00),Y
     A533   25 2D         930          AND $2D
     A535   11 0A         931          ORA ($0A),Y
     A537   A6 30         932          LDX $30
     A539   F0 08         933          BEQ XXA543
     A53B   4A            934   XXA53B LSR A
     A53C   66 31         935          ROR $31
     A53E   66 32         936          ROR $32
     A540   CA            937          DEX
     A541   D0 F8         938          BNE XXA53B
     A543   99 005D       939   XXA543 STA $005D,Y
     A546   A5 31         940          LDA $31
     A548   99 0065       941          STA $0065,Y
     A54B   A5 32         942          LDA $32
     A54D   99 006D       943          STA $006D,Y
     A550   88            944          DEY
     A551   C0 0F         945          CPY #$0F
     A553   D0 C8         946          BNE XXA51D
     A555   A2 47         947          LDX #$47      ;'G'
     A557   A9 00         948          LDA #$00
     A559   9D 1000       949   XXA559 STA $1000,X
     A55C   CA            950          DEX
     A55D   10 FA         951          BPL XXA559
.MAIN.  Commodore 6502ASM V072882    Page 2-19
   JUPITERLANDER20.asm

Error Addr  Code          Seq   Source statement

     A55F   A2 1F         952          LDX #$1F
     A561   A9 2F         953          LDA #$2F      ;'/'
     A563   18            954          CLC
     A564   65 2F         955          ADC $2F
     A566   A8            956          TAY
     A567   C0 2F         957   XXA567 CPY #$2F      ;'/'
     A569   F0 04         958          BEQ XXA56F
     A56B   C0 17         959          CPY #$17
     A56D   D0 04         960          BNE XXA573
     A56F   98            961   XXA56F TYA
     A570   E9 10         962          SBC #$10
     A572   A8            963          TAY
     A573   B5 55         964   XXA573 LDA $55,X
     A575   99 1000       965          STA $1000,Y
     A578   B5 5D         966          LDA $5D,X
     A57A   99 1008       967          STA $1008,Y
     A57D   B5 65         968          LDA $65,X
     A57F   99 1010       969          STA $1010,Y
     A582   88            970          DEY
     A583   CA            971          DEX
     A584   30 08         972          BMI XXA58E
     A586   E0 17         973          CPX #$17
     A588   D0 DD         974          BNE XXA567
     A58A   A2 07         975          LDX #$07
     A58C   D0 D9         976          BNE XXA567
     A58E   60            977   XXA58E RTS
                          978   ;********************************
                          979   ;
                          980   ;********************************
     A58F   A5 1B         981   XXA58F LDA $1B
     A591   0A            982          ASL A
     A592   0A            983          ASL A
     A593   05 1A         984          ORA $1A
     A595   0A            985          ASL A
     A596   0A            986          ASL A
     A597   0A            987          ASL A
     A598   0A            988          ASL A
     A599   A2 00         989          LDX #$00
     A59B   86 01         990          STX $01
     A59D   0A            991          ASL A
     A59E   26 01         992          ROL $01
     A5A0   0A            993          ASL A
     A5A1   26 01         994          ROL $01
     A5A3   0A            995          ASL A
     A5A4   26 01         996          ROL $01
     A5A6   69 C4         997          ADC #$C4
     A5A8   85 00         998          STA $00
     A5AA   A5 01         999          LDA $01
     A5AC   69 B2        1000          ADC #$B2
     A5AE   85 01        1001          STA $01
.MAIN.  Commodore 6502ASM V072882    Page 2-20
   JUPITERLANDER20.asm

Error Addr  Code          Seq   Source statement

     A5B0   A0 07        1002          LDY #$07
     A5B2   A9 00        1003   XXA5B2 LDA #$00
     A5B4   85 34        1004          STA $34
     A5B6   98           1005          TYA
     A5B7   48           1006          PHA
     A5B8   18           1007          CLC
     A5B9   69 08        1008          ADC #$08
     A5BB   A8           1009          TAY
     A5BC   B1 00        1010          LDA ($00),Y
     A5BE   25 2D        1011          AND $2D
     A5C0   11 0A        1012          ORA ($0A),Y
     A5C2   85 31        1013          STA $31
     A5C4   98           1014          TYA
     A5C5   69 08        1015          ADC #$08
     A5C7   A8           1016          TAY
     A5C8   B1 00        1017          LDA ($00),Y
     A5CA   25 2D        1018          AND $2D
     A5CC   11 0A        1019          ORA ($0A),Y
     A5CE   85 32        1020          STA $32
     A5D0   98           1021          TYA
     A5D1   69 08        1022          ADC #$08
     A5D3   A8           1023          TAY
     A5D4   B1 00        1024          LDA ($00),Y
     A5D6   25 2D        1025          AND $2D
     A5D8   11 0A        1026          ORA ($0A),Y
     A5DA   85 33        1027          STA $33
     A5DC   68           1028          PLA
     A5DD   A8           1029          TAY
     A5DE   B1 00        1030          LDA ($00),Y
     A5E0   25 2D        1031          AND $2D
     A5E2   11 0A        1032          ORA ($0A),Y
     A5E4   A6 30        1033          LDX $30
     A5E6   F0 0C        1034          BEQ XXA5F4
     A5E8   4A           1035   XXA5E8 LSR A
     A5E9   66 31        1036          ROR $31
     A5EB   66 32        1037          ROR $32
     A5ED   66 33        1038          ROR $33
     A5EF   66 34        1039          ROR $34
     A5F1   CA           1040          DEX
     A5F2   D0 F4        1041          BNE XXA5E8
     A5F4   99 0055      1042   XXA5F4 STA $0055,Y
     A5F7   A5 31        1043          LDA $31
     A5F9   99 005D      1044          STA $005D,Y
     A5FC   A5 32        1045          LDA $32
     A5FE   99 0065      1046          STA $0065,Y
     A601   A5 33        1047          LDA $33
     A603   99 006D      1048          STA $006D,Y
     A606   A5 34        1049          LDA $34
     A608   99 0075      1050          STA $0075,Y
     A60B   88           1051          DEY
.MAIN.  Commodore 6502ASM V072882    Page 2-21
   JUPITERLANDER20.asm

Error Addr  Code          Seq   Source statement

     A60C   10 A4        1052          BPL XXA5B2
     A60E   A0 27        1053          LDY #$27      ;'''
     A610   A9 00        1054   XXA610 LDA #$00
     A612   85 34        1055          STA $34
     A614   98           1056          TYA
     A615   48           1057          PHA
     A616   18           1058          CLC
     A617   69 08        1059          ADC #$08
     A619   A8           1060          TAY
     A61A   B1 00        1061          LDA ($00),Y
     A61C   25 2D        1062          AND $2D
     A61E   11 0A        1063          ORA ($0A),Y
     A620   85 31        1064          STA $31
     A622   98           1065          TYA
     A623   69 08        1066          ADC #$08
     A625   A8           1067          TAY
     A626   B1 00        1068          LDA ($00),Y
     A628   25 2D        1069          AND $2D
     A62A   11 0A        1070          ORA ($0A),Y
     A62C   85 32        1071          STA $32
     A62E   98           1072          TYA
     A62F   69 08        1073          ADC #$08
     A631   A8           1074          TAY
     A632   B1 00        1075          LDA ($00),Y
     A634   25 2D        1076          AND $2D
     A636   11 0A        1077          ORA ($0A),Y
     A638   85 33        1078          STA $33
     A63A   68           1079          PLA
     A63B   A8           1080          TAY
     A63C   B1 00        1081          LDA ($00),Y
     A63E   25 2D        1082          AND $2D
     A640   11 0A        1083          ORA ($0A),Y
     A642   A6 30        1084          LDX $30
     A644   F0 0C        1085          BEQ XXA652
     A646   4A           1086   XXA646 LSR A
     A647   66 31        1087          ROR $31
     A649   66 32        1088          ROR $32
     A64B   66 33        1089          ROR $33
     A64D   66 34        1090          ROR $34
     A64F   CA           1091          DEX
     A650   D0 F4        1092          BNE XXA646
     A652   99 005D      1093   XXA652 STA $005D,Y
     A655   A5 31        1094          LDA $31
     A657   99 0065      1095          STA $0065,Y
     A65A   A5 32        1096          LDA $32
     A65C   99 006D      1097          STA $006D,Y
     A65F   A5 33        1098          LDA $33
     A661   99 0075      1099          STA $0075,Y
     A664   A5 34        1100          LDA $34
     A666   99 007D      1101          STA $007D,Y
.MAIN.  Commodore 6502ASM V072882    Page 2-22
   JUPITERLANDER20.asm

Error Addr  Code          Seq   Source statement

     A669   88           1102          DEY
     A66A   C0 1F        1103          CPY #$1F
     A66C   D0 A2        1104          BNE XXA610
     A66E   A0 47        1105          LDY #$47      ;'G'
     A670   A9 00        1106   XXA670 LDA #$00
     A672   85 34        1107          STA $34
     A674   98           1108          TYA
     A675   48           1109          PHA
     A676   18           1110          CLC
     A677   69 08        1111          ADC #$08
     A679   A8           1112          TAY
     A67A   B1 00        1113          LDA ($00),Y
     A67C   25 2D        1114          AND $2D
     A67E   11 0A        1115          ORA ($0A),Y
     A680   85 31        1116          STA $31
     A682   98           1117          TYA
     A683   69 08        1118          ADC #$08
     A685   A8           1119          TAY
     A686   B1 00        1120          LDA ($00),Y
     A688   25 2D        1121          AND $2D
     A68A   11 0A        1122          ORA ($0A),Y
     A68C   85 32        1123          STA $32
     A68E   98           1124          TYA
     A68F   69 08        1125          ADC #$08
     A691   A8           1126          TAY
     A692   B1 00        1127          LDA ($00),Y
     A694   25 2D        1128          AND $2D
     A696   11 0A        1129          ORA ($0A),Y
     A698   85 33        1130          STA $33
     A69A   68           1131          PLA
     A69B   A8           1132          TAY
     A69C   B1 00        1133          LDA ($00),Y
     A69E   25 2D        1134          AND $2D
     A6A0   11 0A        1135          ORA ($0A),Y
     A6A2   A6 30        1136          LDX $30
     A6A4   F0 0C        1137          BEQ XXA6B2
     A6A6   4A           1138   XXA6A6 LSR A
     A6A7   66 31        1139          ROR $31
     A6A9   66 32        1140          ROR $32
     A6AB   66 33        1141          ROR $33
     A6AD   66 34        1142          ROR $34
     A6AF   CA           1143          DEX
     A6B0   D0 F4        1144          BNE XXA6A6
     A6B2   99 0065      1145   XXA6B2 STA $0065,Y
     A6B5   A5 31        1146          LDA $31
     A6B7   99 006D      1147          STA $006D,Y
     A6BA   A5 32        1148          LDA $32
     A6BC   99 0075      1149          STA $0075,Y
     A6BF   A5 33        1150          LDA $33
     A6C1   99 007D      1151          STA $007D,Y
.MAIN.  Commodore 6502ASM V072882    Page 2-23
   JUPITERLANDER20.asm

Error Addr  Code          Seq   Source statement

     A6C4   A5 34        1152          LDA $34
     A6C6   99 0085      1153          STA $0085,Y
     A6C9   88           1154          DEY
     A6CA   C0 3F        1155          CPY #$3F      ;'?'
     A6CC   D0 A2        1156          BNE XXA670
     A6CE   A0 67        1157          LDY #$67
     A6D0   A9 00        1158   XXA6D0 LDA #$00
     A6D2   85 34        1159          STA $34
     A6D4   98           1160          TYA
     A6D5   48           1161          PHA
     A6D6   18           1162          CLC
     A6D7   69 08        1163          ADC #$08
     A6D9   A8           1164          TAY
     A6DA   B1 00        1165          LDA ($00),Y
     A6DC   25 2D        1166          AND $2D
     A6DE   11 0A        1167          ORA ($0A),Y
     A6E0   85 31        1168          STA $31
     A6E2   98           1169          TYA
     A6E3   69 08        1170          ADC #$08
     A6E5   A8           1171          TAY
     A6E6   B1 00        1172          LDA ($00),Y
     A6E8   25 2D        1173          AND $2D
     A6EA   11 0A        1174          ORA ($0A),Y
     A6EC   85 32        1175          STA $32
     A6EE   98           1176          TYA
     A6EF   69 08        1177          ADC #$08
     A6F1   A8           1178          TAY
     A6F2   B1 00        1179          LDA ($00),Y
     A6F4   25 2D        1180          AND $2D
     A6F6   11 0A        1181          ORA ($0A),Y
     A6F8   85 33        1182          STA $33
     A6FA   68           1183          PLA
     A6FB   A8           1184          TAY
     A6FC   B1 00        1185          LDA ($00),Y
     A6FE   25 2D        1186          AND $2D
     A700   11 0A        1187          ORA ($0A),Y
     A702   A6 30        1188          LDX $30
     A704   F0 0C        1189          BEQ XXA712
     A706   4A           1190   XXA706 LSR A
     A707   66 31        1191          ROR $31
     A709   66 32        1192          ROR $32
     A70B   66 33        1193          ROR $33
     A70D   66 34        1194          ROR $34
     A70F   CA           1195          DEX
     A710   D0 F4        1196          BNE XXA706
     A712   99 006D      1197   XXA712 STA $006D,Y
     A715   A5 31        1198          LDA $31
     A717   99 0075      1199          STA $0075,Y
     A71A   A5 32        1200          LDA $32
     A71C   99 007D      1201          STA $007D,Y
.MAIN.  Commodore 6502ASM V072882    Page 2-24
   JUPITERLANDER20.asm

Error Addr  Code          Seq   Source statement

     A71F   A5 33        1202          LDA $33
     A721   99 0085      1203          STA $0085,Y
     A724   A5 34        1204          LDA $34
     A726   99 008D      1205          STA $008D,Y
     A729   88           1206          DEY
     A72A   C0 5F        1207          CPY #$5F      ;'_'
     A72C   D0 A2        1208          BNE XXA6D0
     A72E   A2 C8        1209          LDX #$C8
     A730   A9 00        1210          LDA #$00
     A732   9D 0FFF      1211   XXA732 STA $0FFF,X
     A735   CA           1212          DEX
     A736   D0 FA        1213          BNE XXA732
     A738   A2 7F        1214          LDX #$7F
     A73A   A9 9F        1215          LDA #$9F
     A73C   18           1216          CLC
     A73D   65 2F        1217          ADC $2F
     A73F   A8           1218          TAY
     A740   C0 9F        1219   XXA740 CPY #$9F
     A742   F0 0C        1220          BEQ XXA750
     A744   C0 77        1221          CPY #$77
     A746   F0 08        1222          BEQ XXA750
     A748   C0 4F        1223          CPY #$4F      ;'O'
     A74A   F0 04        1224          BEQ XXA750
     A74C   C0 27        1225          CPY #$27      ;'''
     A74E   D0 04        1226          BNE XXA754
     A750   98           1227   XXA750 TYA
     A751   E9 20        1228          SBC #$20      ;' '
     A753   A8           1229          TAY
     A754   B5 55        1230   XXA754 LDA $55,X
     A756   99 1000      1231          STA $1000,Y
     A759   B5 5D        1232          LDA $5D,X
     A75B   99 1008      1233          STA $1008,Y
     A75E   B5 65        1234          LDA $65,X
     A760   99 1010      1235          STA $1010,Y
     A763   B5 6D        1236          LDA $6D,X
     A765   99 1018      1237          STA $1018,Y
     A768   B5 75        1238          LDA $75,X
     A76A   99 1020      1239          STA $1020,Y
     A76D   88           1240          DEY
     A76E   CA           1241          DEX
     A76F   30 18        1242          BMI XXA789
     A771   E0 77        1243          CPX #$77
     A773   D0 04        1244          BNE XXA779
     A775   A2 57        1245          LDX #$57      ;'W'
     A777   D0 C7        1246          BNE XXA740
     A779   E0 4F        1247   XXA779 CPX #$4F      ;'O'
     A77B   D0 04        1248          BNE XXA781
     A77D   A2 2F        1249          LDX #$2F      ;'/'
     A77F   D0 BF        1250          BNE XXA740
     A781   E0 27        1251   XXA781 CPX #$27      ;'''
.MAIN.  Commodore 6502ASM V072882    Page 2-25
   JUPITERLANDER20.asm

Error Addr  Code          Seq   Source statement

     A783   D0 BB        1252          BNE XXA740
     A785   A2 07        1253          LDX #$07
     A787   D0 B7        1254          BNE XXA740
     A789   60           1255   XXA789 RTS
                         1256   ;********************************
                         1257   ;
                         1258   ;********************************
     A78A   8A           1259   XXA78A TXA
     A78B   48           1260          PHA
     A78C   98           1261          TYA
     A78D   48           1262          PHA
     A78E   A9 00        1263          LDA #$00
     A790   85 05        1264          STA $05
     A792   A5 38        1265          LDA $38
     A794   0A           1266          ASL A
     A795   26 05        1267          ROL $05
     A797   0A           1268          ASL A
     A798   26 05        1269          ROL $05
     A79A   0A           1270          ASL A
     A79B   26 05        1271          ROL $05
     A79D   69 00        1272          ADC #$00
     A79F   85 04        1273          STA $04
     A7A1   A5 05        1274          LDA $05
     A7A3   69 14        1275          ADC #$14
     A7A5   85 05        1276          STA $05
     A7A7   A5 39        1277          LDA $39
     A7A9   29 1F        1278          AND #$1F
     A7AB   0A           1279          ASL A
     A7AC   0A           1280          ASL A
     A7AD   0A           1281          ASL A
     A7AE   69 00        1282          ADC #$00
     A7B0   85 06        1283          STA $06
     A7B2   A9 00        1284          LDA #$00
     A7B4   69 17        1285          ADC #$17
     A7B6   85 07        1286          STA $07
     A7B8   A9 2F        1287          LDA #$2F      ;'/'
     A7BA   C5 38        1288          CMP $38
     A7BC   90 0C        1289          BCC XXA7CA
     A7BE   A0 07        1290          LDY #$07
     A7C0   B1 04        1291   XXA7C0 LDA ($04),Y
     A7C2   31 06        1292          AND ($06),Y
     A7C4   D0 04        1293          BNE XXA7CA
     A7C6   88           1294          DEY
     A7C7   10 F7        1295          BPL XXA7C0
     A7C9   18           1296          CLC
     A7CA   08           1297   XXA7CA PHP
     A7CB   A0 07        1298          LDY #$07
     A7CD   B1 04        1299   XXA7CD LDA ($04),Y
     A7CF   11 06        1300          ORA ($06),Y
     A7D1   91 06        1301          STA ($06),Y
.MAIN.  Commodore 6502ASM V072882    Page 2-26
   JUPITERLANDER20.asm

Error Addr  Code          Seq   Source statement

     A7D3   88           1302          DEY
     A7D4   10 F7        1303          BPL XXA7CD
     A7D6   28           1304          PLP
     A7D7   68           1305          PLA
     A7D8   A8           1306          TAY
     A7D9   68           1307          PLA
     A7DA   AA           1308          TAX
     A7DB   60           1309          RTS
                         1310   ;********************************
                         1311   ; INIT VIC SOUND REGISTERS
                         1312   ;********************************
     A7DC   A9 00        1313   XXA7DC LDA #$00
     A7DE   8D 900A      1314          STA VICCRA
     A7E1   8D 900B      1315          STA VICCRB
     A7E4   8D 900C      1316          STA VICCRC
     A7E7   8D 900D      1317          STA VICRD
                         1318   ;
     A7EA   A5 20        1319          LDA $20
     A7EC   D0 0C        1320          BNE XXA7FA
     A7EE   A9 80        1321          LDA #$80     ;<$BD80
     A7F0   85 0A        1322          STA $0A
     A7F2   A9 BD        1323          LDA #$BD     ;>$BD80
     A7F4   85 0B        1324          STA $0B
     A7F6   A9 20        1325          LDA #$20      ;' '
     A7F8   D0 0A        1326          BNE XXA804
     A7FA   A9 00        1327   XXA7FA LDA #$00     ;<$BE00
     A7FC   85 0A        1328          STA $0A
     A7FE   A9 BE        1329          LDA #$BE     ;>$BE00
     A800   85 0B        1330          STA $0B
     A802   A9 80        1331          LDA #$80
     A804   85 53        1332   XXA804 STA $53
     A806   20 A46F      1333          JSR XXA46F
     A809   A5 02        1334          LDA $02
     A80B   85 08        1335          STA $08
     A80D   A5 03        1336          LDA $03
     A80F   18           1337          CLC
     A810   69 78        1338          ADC #$78
     A812   85 09        1339          STA $09
     A814   A9 04        1340          LDA #$04
     A816   85 54        1341          STA $54
     A818   20 A130      1342   XXA818 JSR XXA130
     A81B   A5 54        1343          LDA $54
     A81D   0A           1344          ASL A
     A81E   69 07        1345          ADC #$07
     A820   8D 900E      1346          STA VICCRE
     A823   69 86        1347          ADC #$86
     A825   A6 26        1348          LDX $26
     A827   F0 02        1349          BEQ XXA82B
     A829   A9 00        1350          LDA #$00
     A82B   8D 900A      1351   XXA82B STA VICCRA
.MAIN.  Commodore 6502ASM V072882    Page 2-27
   JUPITERLANDER20.asm

Error Addr  Code          Seq   Source statement

     A82E   8D 900B      1352          STA VICCRB
     A831   8D 900C      1353          STA VICCRC
     A834   8D 900D      1354          STA VICRD
     A837   20 A908      1355          JSR XXA908
     A83A   A5 0A        1356          LDA $0A
     A83C   18           1357          CLC
     A83D   65 53        1358          ADC $53
     A83F   85 0A        1359          STA $0A
     A841   90 02        1360          BCC XXA845
     A843   E6 0B        1361          INC $0B
     A845   C6 54        1362   XXA845 DEC $54
     A847   D0 CF        1363          BNE XXA818
     A849   A9 00        1364          LDA #$00
     A84B   85 2D        1365          STA $2D
     A84D   A9 04        1366          LDA #$04
     A84F   85 54        1367          STA $54
     A851   A5 0A        1368   XXA851 LDA $0A
     A853   38           1369          SEC
     A854   E5 53        1370          SBC $53
     A856   85 0A        1371          STA $0A
     A858   B0 02        1372          BCS XXA85C
     A85A   C6 0B        1373          DEC $0B
     A85C   20 A130      1374   XXA85C JSR XXA130
     A85F   20 A908      1375          JSR XXA908
     A862   A5 54        1376          LDA $54
     A864   0A           1377          ASL A
     A865   69 FF        1378          ADC #$FF
     A867   A6 26        1379          LDX $26
     A869   F0 02        1380          BEQ XXA86D
     A86B   A9 00        1381          LDA #$00
     A86D   8D 900E      1382   XXA86D STA VICCRE
     A870   18           1383          CLC
     A871   69 86        1384          ADC #$86
     A873   8D 900A      1385          STA VICCRA
     A876   8D 900B      1386          STA VICCRB
     A879   8D 900C      1387          STA VICCRC
     A87C   8D 900D      1388          STA VICRD
     A87F   C6 54        1389          DEC $54
     A881   D0 CE        1390          BNE XXA851
     A883   A9 00        1391          LDA #$00
     A885   8D 900A      1392          STA VICCRA
     A888   8D 900B      1393          STA VICCRB
     A88B   8D 900C      1394          STA VICCRC
     A88E   8D 900D      1395          STA VICRD
     A891   A9 0F        1396          LDA #$0F
     A893   A6 26        1397          LDX $26
     A895   F0 02        1398          BEQ XXA899
     A897   A9 00        1399          LDA #$00
     A899   8D 900E      1400   XXA899 STA VICCRE
     A89C   A9 C8        1401          LDA #$C8
.MAIN.  Commodore 6502ASM V072882    Page 2-28
   JUPITERLANDER20.asm

Error Addr  Code          Seq   Source statement

     A89E   85 0A        1402          STA $0A
     A8A0   A9 10        1403          LDA #$10
     A8A2   85 0B        1404          STA $0B
     A8A4   20 A130      1405          JSR XXA130
     A8A7   A5 26        1406          LDA $26
     A8A9   F0 01        1407          BEQ XXA8AC
     A8AB   60           1408          RTS
                         1409   ;********************************
                         1410   ;
                         1411   ;********************************
     A8AC   A5 15        1412   XXA8AC LDA $15
     A8AE   C9 02        1413          CMP #$02
     A8B0   90 08        1414          BCC XXA8BA
     A8B2   A9 01        1415          LDA #$01
     A8B4   85 35        1416          STA $35
     A8B6   A9 FF        1417          LDA #$FF
     A8B8   D0 04        1418          BNE XXA8BE
     A8BA   85 35        1419   XXA8BA STA $35
     A8BC   A5 14        1420          LDA $14
     A8BE   46 35        1421   XXA8BE LSR $35
     A8C0   6A           1422          ROR A
     A8C1   46 35        1423          LSR $35
     A8C3   6A           1424          ROR A
     A8C4   4A           1425          LSR A
     A8C5   4A           1426          LSR A
     A8C6   85 35        1427          STA $35
     A8C8   A5 17        1428          LDA $17
     A8CA   38           1429          SEC
     A8CB   E5 35        1430          SBC $35
     A8CD   B0 02        1431          BCS XXA8D1
     A8CF   A9 00        1432          LDA #$00
     A8D1   85 17        1433   XXA8D1 STA $17
     A8D3   20 AEF3      1434          JSR XXAEF3
     A8D6   A2 C8        1435   XXA8D6 LDX #$C8
     A8D8   20 B0CC      1436          JSR DELAY1
     A8DB   A5 17        1437          LDA $17
     A8DD   F0 03        1438          BEQ XXA8E2
                         1439   ;********************************
                         1440   ; START GAME CYCLE
                         1441   ;********************************
                         1442   	
     A8DF   4C A0BE      1443          JMP XXA0BE
                         1444   	
                         1445   ;********************************
     A8E2   A2 00        1446   XXA8E2 LDX #$00
     A8E4   20 B0CC      1447          JSR DELAY1
     A8E7   A5 1E        1448          LDA $1E
     A8E9   C5 1C        1449          CMP $1C
     A8EB   A5 1F        1450          LDA $1F
     A8ED   E5 1D        1451          SBC $1D
.MAIN.  Commodore 6502ASM V072882    Page 2-29
   JUPITERLANDER20.asm

Error Addr  Code          Seq   Source statement

     A8EF   B0 0B        1452          BCS XXA8FC
     A8F1   A5 1C        1453          LDA $1C
     A8F3   85 1E        1454          STA $1E
     A8F5   A5 1D        1455          LDA $1D
     A8F7   85 1F        1456          STA $1F
                         1457   ;
                         1458   ; DISPLAY SCORE
                         1459   ;
     A8F9   20 B0E8      1460          JSR XXB0E8
                         1461   ;
                         1462   ; GAME OVER MAN
                         1463   ;
     A8FC   58           1464   XXA8FC CLI
     A8FD   20 A989      1465          JSR XXA989
     A900   A2 00        1466          LDX #$00
     A902   20 B0CC      1467          JSR DELAY1
     A905   4C A072      1468          JMP XXA072
                         1469   ;********************************
                         1470   ;
                         1471   ;********************************
     A908   A9 04        1472   XXA908 LDA #$04
     A90A   85 21        1473          STA $21
     A90C   A5 20        1474          LDA $20
     A90E   D0 28        1475          BNE XXA938
     A910   A9 03        1476   XXA910 LDA #$03
     A912   85 35        1477          STA $35
     A914   A0 00        1478          LDY #$00
     A916   A2 03        1479   XXA916 LDX #$03
     A918   B1 08        1480   XXA918 LDA ($08),Y
     A91A   18           1481          CLC
     A91B   69 02        1482          ADC #$02
     A91D   29 07        1483          AND #$07
     A91F   91 08        1484          STA ($08),Y
     A921   C8           1485          INY
     A922   CA           1486          DEX
     A923   D0 F3        1487          BNE XXA918
     A925   98           1488          TYA
     A926   18           1489          CLC
     A927   69 14        1490          ADC #$14
     A929   A8           1491          TAY
     A92A   C6 35        1492          DEC $35
     A92C   D0 E8        1493          BNE XXA916
     A92E   A2 06        1494          LDX #$06
     A930   20 B0CC      1495          JSR DELAY1
     A933   C6 21        1496          DEC $21
     A935   D0 D9        1497          BNE XXA910
     A937   60           1498          RTS
                         1499   ;********************************
                         1500   ;
                         1501   ;********************************
.MAIN.  Commodore 6502ASM V072882    Page 2-30
   JUPITERLANDER20.asm

Error Addr  Code          Seq   Source statement

     A938   A9 05        1502   XXA938 LDA #$05
     A93A   85 35        1503          STA $35
     A93C   A0 00        1504          LDY #$00
     A93E   A2 05        1505   XXA93E LDX #$05
     A940   B1 08        1506   XXA940 LDA ($08),Y
     A942   18           1507          CLC
     A943   69 02        1508          ADC #$02
     A945   29 07        1509          AND #$07
     A947   91 08        1510          STA ($08),Y
     A949   C8           1511          INY
     A94A   CA           1512          DEX
     A94B   D0 F3        1513          BNE XXA940
     A94D   98           1514          TYA
     A94E   18           1515          CLC
     A94F   69 12        1516          ADC #$12
     A951   A8           1517          TAY
     A952   C6 35        1518          DEC $35
     A954   D0 E8        1519          BNE XXA93E
     A956   A2 06        1520          LDX #$06
     A958   20 B0CC      1521          JSR DELAY1
     A95B   C6 21        1522          DEC $21
     A95D   D0 D9        1523          BNE XXA938
     A95F   60           1524          RTS
                         1525   ;********************************
                         1526   ;
                         1527   ;********************************
     A960   A9 00        1528   XXA960 LDA #$00
     A962   8D 900A      1529          STA VICCRA
     A965   8D 900B      1530          STA VICCRB
     A968   8D 900C      1531          STA VICCRC
     A96B   8D 900D      1532          STA VICRD
     A96E   20 AADF      1533          JSR XXAADF
     A971   A2 09        1534          LDX #$09
     A973   BD A97F      1535   XXA973 LDA XXA97F,X
     A976   9D 1C34      1536          STA $1C34,X
     A979   CA           1537          DEX
     A97A   10 F7        1538          BPL XXA973
     A97C   4C A8D6      1539          JMP XXA8D6
                         1540   ;********************************
                         1541   ; DATA 'OUT OF SKY'
                         1542   ;********************************
     A97F   4F           1543   XXA97F .BYTE $4F ;'O'
     A980   55           1544          .BYTE $55 ;'U'
     A981   54           1545          .BYTE $54 ;'T'
     A982   00           1546          .BYTE $00 ;' '
     A983   4F           1547          .BYTE $4F ;'O'
     A984   46           1548          .BYTE $46 ;'F'
     A985   00           1549          .BYTE $00 ;' '
     A986   53           1550          .BYTE $53 ;'S'
     A987   4B           1551          .BYTE $4B ;'K'
.MAIN.  Commodore 6502ASM V072882    Page 2-31
   JUPITERLANDER20.asm

Error Addr  Code          Seq   Source statement

     A988   59           1552          .BYTE $59 ;'Y'
                         1553   ;********************************
                         1554   ;
                         1555   ;********************************
                         1556   ;XXA989 .BYTE $A2
                         1557   ;       .BYTE $10
                         1558   ;********************************
                         1559   ; GAME OVER MAN
                         1560   ;********************************
     A989   A2 10        1561   XXA989 LDX #$10
     A98B   A9 01        1562   XXA98B LDA #$01
     A98D   9D 945F      1563          STA $945F,X
     A990   9D 9476      1564          STA $9476,X
     A993   A9 00        1565          LDA #$00
     A995   9D 1C5F      1566          STA $1C5F,X
     A998   9D 1C76      1567          STA $1C76,X
     A99B   CA           1568          DEX
     A99C   10 ED        1569          BPL XXA98B
                         1570   ;
                         1571   ; DISPLAY GAME OVER
                         1572   ;
     A99E   A2 08        1573          LDX #$08
     A9A0   BD A9AA      1574   XXA9A0 LDA XXA9AA,X
     A9A3   9D 1C63      1575          STA $1C63,X
     A9A6   CA           1576          DEX
     A9A7   10 F7        1577          BPL XXA9A0
     A9A9   60           1578          RTS
                         1579   ;********************************
                         1580   ; GAME OVER
                         1581   ;********************************
     A9AA   47           1582   XXA9AA .BYTE $47 ;'G'
     A9AB   41           1583          .BYTE $41 ;'A'
     A9AC   4D           1584          .BYTE $4D ;'M'
     A9AD   45           1585          .BYTE $45 ;'E'
     A9AE   00           1586          .BYTE $00 ;' '
     A9AF   4F           1587          .BYTE $4F ;'O'
     A9B0   56           1588          .BYTE $56 ;'V'
     A9B1   45           1589          .BYTE $45 ;'E'
     A9B2   52           1590          .BYTE $52 ;'R'
                         1591   ;********************************
                         1592   ;
                         1593   ;********************************
     A9B3   A9 00        1594   XXA9B3 LDA #$00
     A9B5   8D 900A      1595          STA VICCRA
     A9B8   8D 900B      1596          STA VICCRB
     A9BB   8D 900C      1597          STA VICCRC
     A9BE   8D 900D      1598          STA VICRD
     A9C1   85 1B        1599          STA $1B
     A9C3   85 1A        1600          STA $1A
                         1601   ;
.MAIN.  Commodore 6502ASM V072882    Page 2-32
   JUPITERLANDER20.asm

Error Addr  Code          Seq   Source statement

     A9C5   20 A130      1602          JSR XXA130
                         1603   ;
     A9C8   A5 15        1604          LDA $15
     A9CA   30 0B        1605          BMI XXA9D7
     A9CC   D0 06        1606          BNE XXA9D4
     A9CE   A5 14        1607          LDA $14
     A9D0   C9 48        1608          CMP #$48      ;'H'
     A9D2   90 03        1609          BCC XXA9D7
                         1610   ;
     A9D4   4C AA62      1611   XXA9D4 JMP XXAA62
                         1612   ;********************************
                         1613   ;
                         1614   ;********************************
     A9D7   A9 00        1615   XXA9D7 LDA #$00
     A9D9   85 1B        1616          STA $1B
     A9DB   A9 50        1617          LDA #$50      ;'P'
     A9DD   38           1618          SEC
     A9DE   E5 14        1619          SBC $14
     A9E0   A6 20        1620          LDX $20
     A9E2   E0 01        1621          CPX #$01
     A9E4   F0 01        1622          BEQ XXA9E7
     A9E6   0A           1623          ASL A
     A9E7   E0 02        1624   XXA9E7 CPX #$02
     A9E9   F0 0E        1625          BEQ XXA9F9
     A9EB   85 21        1626          STA $21
     A9ED   0A           1627          ASL A
     A9EE   26 1B        1628          ROL $1B
     A9F0   0A           1629          ASL A
     A9F1   26 1B        1630          ROL $1B
     A9F3   65 21        1631          ADC $21
     A9F5   90 02        1632          BCC XXA9F9
     A9F7   E6 1B        1633          INC $1B
     A9F9   85 21        1634   XXA9F9 STA $21
     A9FB   20 AAFA      1635          JSR XXAAFA
                         1636   	
                         1637   ;********************************
                         1638   ; PLAY TUNE 2 FOR BONUS
                         1639   ;********************************
     A9FE   A0 00        1640          LDY #$00
     AA00   B9 AABF      1641   XXAA00 LDA XXAABF,Y
                         1642   
            =0001        1643    .IFN TUNE2 <
     AA03   8D 900C      1644          STA VICCRC
                         1645    .ELSE
                         1646          LDA VICCRC
                         1647    .ENDIF
                         1648    
     AA06   A2 0E        1649          LDX #$0E
     AA08   20 B0CC      1650          JSR DELAY1
     AA0B   C8           1651          INY
.MAIN.  Commodore 6502ASM V072882    Page 2-33
   JUPITERLANDER20.asm

Error Addr  Code          Seq   Source statement

     AA0C   C0 20        1652          CPY #$20      ;' '
     AA0E   D0 F0        1653          BNE XXAA00
                         1654   ;********************************
                         1655   ;
                         1656   ;********************************
     AA10   F8           1657   XXAA10 SED
     AA11   A5 1C        1658          LDA $1C
     AA13   18           1659          CLC
     AA14   69 01        1660          ADC #$01
     AA16   85 1C        1661          STA $1C
     AA18   A5 1D        1662          LDA $1D
     AA1A   69 00        1663          ADC #$00
     AA1C   85 1D        1664          STA $1D
     AA1E   D8           1665          CLD
                         1666   ;********************************
                         1667   ; DISPLAY SCORE
                         1668   ;********************************
     AA1F   20 B0E8      1669          JSR XXB0E8
     AA22   A5 16        1670          LDA $16
     AA24   18           1671          CLC
     AA25   69 46        1672          ADC #$46      ;'F'
     AA27   AA           1673          TAX
     AA28   A5 17        1674          LDA $17
     AA2A   69 00        1675          ADC #$00
     AA2C   B0 07        1676          BCS XXAA35
     AA2E   86 16        1677          STX $16
     AA30   85 17        1678          STA $17
     AA32   20 AEF3      1679          JSR XXAEF3
                         1680   ;********************************
                         1681   ; PLAY BLIPS AS FUEL GAGE LOADS
                         1682   ;********************************
     AA35   A9 F8        1683   XXAA35 LDA #$F8
     AA37   8D 900C      1684          STA VICCRC
     AA3A   A2 02        1685          LDX #$02
     AA3C   20 B0CC      1686          JSR DELAY1
     AA3F   A9 00        1687          LDA #$00
     AA41   8D 900C      1688          STA VICCRC
     AA44   A2 02        1689          LDX #$02
     AA46   20 B0CC      1690          JSR DELAY1
     AA49   A5 21        1691          LDA $21
     AA4B   38           1692          SEC
     AA4C   E9 01        1693          SBC #$01
     AA4E   85 21        1694          STA $21
     AA50   A5 1B        1695          LDA $1B
     AA52   E9 00        1696          SBC #$00
     AA54   85 1B        1697          STA $1B
     AA56   05 21        1698          ORA $21
     AA58   D0 B6        1699          BNE XXAA10
     AA5A   A2 96        1700          LDX #$96
     AA5C   20 B0CC      1701          JSR DELAY1
.MAIN.  Commodore 6502ASM V072882    Page 2-34
   JUPITERLANDER20.asm

Error Addr  Code          Seq   Source statement

     AA5F   4C A09E      1702          JMP XXA09E
                         1703   ;********************************
                         1704   ; PLAY TUNE 3 FOR SORRY NO BONUS
                         1705   ;********************************
     AA62   A0 00        1706   XXAA62 LDY #$00
     AA64   B9 AA85      1707   XXAA64 LDA XXAA85,Y
                         1708   
            =0001        1709    .IFN TUNE3 <
     AA67   8D 900C      1710          STA VICCRC
                         1711    .ELSE
                         1712          LDA VICCRC
                         1713    .ENDIF
                         1714    
     AA6A   A2 08        1715          LDX #$08
     AA6C   20 B0CC      1716          JSR DELAY1
     AA6F   C8           1717          INY
     AA70   C0 2C        1718          CPY #$2C      ;','
     AA72   D0 F0        1719          BNE XXAA64
                         1720   	
     AA74   20 AADF      1721          JSR XXAADF
     AA77   A2 0D        1722          LDX #$0D
     AA79   BD AAB1      1723   XXAA79 LDA XXAAB1,X
     AA7C   9D 1C32      1724          STA $1C32,X
     AA7F   CA           1725          DEX
     AA80   10 F7        1726          BPL XXAA79
     AA82   4C A7DC      1727          JMP XXA7DC
                         1728   ;********************************
                         1729   ; TUNE 2 SORRY NO BONUS
                         1730   ;********************************
                         1731   ;.LIB VICMUSIC2.ASM
     AA85   EC           1732   XXAA85 .BYTE $EC
     AA86   00           1733          .BYTE $00
     AA87   F1           1734          .BYTE $F1
     AA88   EC           1735          .BYTE $EC
     AA89   E8           1736          .BYTE $E8
     AA8A   00           1737          .BYTE $00
     AA8B   EC           1738          .BYTE $EC
     AA8C   E8           1739          .BYTE $E8
     AA8D   E3           1740          .BYTE $E3
     AA8E   00           1741          .BYTE $00
     AA8F   E8           1742          .BYTE $E8
     AA90   E3           1743          .BYTE $E3
     AA91   D9           1744          .BYTE $D9
     AA92   D9           1745          .BYTE $D9
     AA93   00           1746          .BYTE $00
     AA94   D9           1747          .BYTE $D9
     AA95   D7           1748          .BYTE $D7
     AA96   D9           1749          .BYTE $D9
     AA97   DB           1750          .BYTE $DB
     AA98   DD           1751          .BYTE $DD
.MAIN.  Commodore 6502ASM V072882    Page 2-35
   JUPITERLANDER20.asm

Error Addr  Code          Seq   Source statement

     AA99   DB           1752          .BYTE $DB
     AA9A   DD           1753          .BYTE $DD
     AA9B   DF           1754          .BYTE $DF
     AA9C   E1           1755          .BYTE $E1
     AA9D   E3           1756          .BYTE $E3
     AA9E   00           1757          .BYTE $00
     AA9F   00           1758          .BYTE $00
     AAA0   D9           1759          .BYTE $D9
     AAA1   D7           1760          .BYTE $D7
     AAA2   D9           1761          .BYTE $D9
     AAA3   DB           1762          .BYTE $DB
     AAA4   DB           1763          .BYTE $DB
     AAA5   DB           1764          .BYTE $DB
     AAA6   D9           1765          .BYTE $D9
     AAA7   D9           1766          .BYTE $D9
     AAA8   00           1767          .BYTE $00
     AAA9   00           1768          .BYTE $00
     AAAA   00           1769          .BYTE $00
     AAAB   E1           1770          .BYTE $E1
     AAAC   00           1771          .BYTE $00
     AAAD   00           1772          .BYTE $00
     AAAE   00           1773          .BYTE $00
     AAAF   E3           1774          .BYTE $E3
     AAB0   00           1775          .BYTE $00
                         1776   ;********************************
                         1777   ; TEXT FOR 'SORRY' NO BONUS
                         1778   ;********************************
     AAB1   53           1779   XXAAB1 .BYTE $53
     AAB2   4F           1780          .BYTE $4F
     AAB3   52           1781          .BYTE $52
     AAB4   52           1782          .BYTE $52
     AAB5   59           1783          .BYTE $59
     AAB6   00           1784          .BYTE $00
                         1785   ;********************************
                         1786   ; TEXT FOR SORRY 'NO' BONUS
                         1787   ;********************************
     AAB7   4E           1788          .BYTE $4E
     AAB8   4F           1789          .BYTE $4F
     AAB9   00           1790          .BYTE $00
                         1791   ;********************************
                         1792   ; TEXT FOR SORRY NO 'BONUS'
                         1793   ;********************************
     AABA   42           1794          .BYTE $42
     AABB   4F           1795          .BYTE $4F
     AABC   4E           1796          .BYTE $4E
     AABD   55           1797          .BYTE $55
     AABE   53           1798          .BYTE $53
                         1799   ;********************************
                         1800   ; TUNE 3 FOR BONUS POINTS
                         1801   ;********************************
.MAIN.  Commodore 6502ASM V072882    Page 2-36
   JUPITERLANDER20.asm

Error Addr  Code          Seq   Source statement

                         1802   ;.LIB VICMUSIC3.ASM
     AABF   E3           1803   XXAABF .BYTE $E3
     AAC0   00           1804          .BYTE $00
     AAC1   E3           1805          .BYTE $E3
     AAC2   E8           1806          .BYTE $E8
     AAC3   EC           1807          .BYTE $EC
     AAC4   E8           1808          .BYTE $E8
     AAC5   EC           1809          .BYTE $EC
     AAC6   E8           1810          .BYTE $E8
     AAC7   E6           1811          .BYTE $E6
     AAC8   00           1812          .BYTE $00
     AAC9   E6           1813          .BYTE $E6
     AACA   EA           1814          .BYTE $EA
     AACB   EE           1815          .BYTE $EE
     AACC   EE           1816          .BYTE $EE
     AACD   EE           1817          .BYTE $EE
     AACE   F0           1818          .BYTE $F0
     AACF   EC           1819          .BYTE $EC
     AAD0   E8           1820          .BYTE $E8
     AAD1   F0           1821          .BYTE $F0
     AAD2   EC           1822          .BYTE $EC
     AAD3   E8           1823          .BYTE $E8
     AAD4   F0           1824          .BYTE $F0
     AAD5   EC           1825          .BYTE $EC
     AAD6   F1           1826          .BYTE $F1
     AAD7   00           1827          .BYTE $00
     AAD8   F0           1828          .BYTE $F0
     AAD9   F1           1829          .BYTE $F1
     AADA   F1           1830          .BYTE $F1
     AADB   F1           1831          .BYTE $F1
     AADC   F1           1832          .BYTE $F1
     AADD   F1           1833          .BYTE $F1
     AADE   00           1834          .BYTE $00
                         1835   ;********************************
                         1836   ;
                         1837   ;********************************
     AADF   A2 0E        1838   XXAADF LDX #$0E
     AAE1   A9 01        1839          LDA #$01
     AAE3   9D 9432      1840   XXAAE3 STA $9432,X
     AAE6   CA           1841          DEX
     AAE7   10 FA        1842          BPL XXAAE3
     AAE9   A2 10        1843          LDX #$10
     AAEB   A9 00        1844          LDA #$00
     AAED   9D 1C1A      1845   XXAAED STA $1C1A,X
     AAF0   9D 1C31      1846          STA $1C31,X
     AAF3   9D 1C48      1847          STA $1C48,X
     AAF6   CA           1848          DEX
     AAF7   10 F4        1849          BPL XXAAED
     AAF9   60           1850          RTS
                         1851   ;********************************
.MAIN.  Commodore 6502ASM V072882    Page 2-37
   JUPITERLANDER20.asm

Error Addr  Code          Seq   Source statement

                         1852   ; DISPLAY BONUS ??? X ??? = ???
                         1853   ;********************************
     AAFA   20 AADF      1854   XXAAFA JSR XXAADF
     AAFD   A9 50        1855          LDA #$50      ;'P'
     AAFF   38           1856          SEC
     AB00   E5 14        1857          SBC $14
     AB02   A2 FF        1858          LDX #$FF
     AB04   E8           1859   XXAB04 INX
     AB05   38           1860          SEC
     AB06   E9 0A        1861          SBC #$0A
     AB08   B0 FA        1862          BCS XXAB04
     AB0A   69 0A        1863          ADC #$0A
     AB0C   09 30        1864          ORA #$30      ;'0'
     AB0E   8D 1C33      1865          STA $1C33
     AB11   8A           1866          TXA
     AB12   F0 05        1867          BEQ XXAB19
     AB14   09 30        1868          ORA #$30      ;'0'
     AB16   8D 1C32      1869          STA $1C32
     AB19   A9 30        1870   XXAB19 LDA #$30      ;'0'
     AB1B   8D 1C34      1871          STA $1C34
     AB1E   A9 58        1872          LDA #$58      ;'X'
     AB20   8D 1C36      1873          STA $1C36
     AB23   A6 20        1874          LDX $20
     AB25   CA           1875          DEX
     AB26   D0 07        1876          BNE XXAB2F
     AB28   A9 35        1877          LDA #$35      ;'5'
     AB2A   8D 1C39      1878          STA $1C39
     AB2D   D0 14        1879          BNE XXAB43
     AB2F   CA           1880   XXAB2F DEX
     AB30   D0 07        1881          BNE XXAB39
     AB32   A9 32        1882          LDA #$32      ;'2'
     AB34   8D 1C39      1883          STA $1C39
     AB37   D0 0A        1884          BNE XXAB43
     AB39   A9 31        1885   XXAB39 LDA #$31      ;'1'
     AB3B   8D 1C38      1886          STA $1C38
     AB3E   A9 30        1887          LDA #$30      ;'0'
     AB40   8D 1C39      1888          STA $1C39
     AB43   A9 3D        1889   XXAB43 LDA #$3D      ;'='
     AB45   8D 1C3B      1890          STA $1C3B
     AB48   A5 21        1891          LDA $21
     AB4A   A6 1B        1892          LDX $1B
     AB4C   A0 FF        1893          LDY #$FF
     AB4E   C8           1894   XXAB4E INY
     AB4F   38           1895          SEC
     AB50   E9 64        1896          SBC #$64
     AB52   48           1897          PHA
     AB53   8A           1898          TXA
     AB54   E9 00        1899          SBC #$00
     AB56   AA           1900          TAX
     AB57   68           1901          PLA
.MAIN.  Commodore 6502ASM V072882    Page 2-38
   JUPITERLANDER20.asm

Error Addr  Code          Seq   Source statement

     AB58   B0 F4        1902          BCS XXAB4E
     AB5A   69 64        1903          ADC #$64
     AB5C   48           1904          PHA
     AB5D   98           1905          TYA
     AB5E   F0 05        1906          BEQ XXAB65
     AB60   09 30        1907          ORA #$30      ;'0'
     AB62   8D 1C3D      1908          STA $1C3D
     AB65   68           1909   XXAB65 PLA
     AB66   A0 FF        1910          LDY #$FF
     AB68   C8           1911   XXAB68 INY
     AB69   38           1912          SEC
     AB6A   E9 0A        1913          SBC #$0A
     AB6C   B0 FA        1914          BCS XXAB68
     AB6E   69 0A        1915          ADC #$0A
     AB70   48           1916          PHA
     AB71   98           1917          TYA
     AB72   09 30        1918          ORA #$30      ;'0'
     AB74   8D 1C3E      1919          STA $1C3E
     AB77   68           1920          PLA
     AB78   09 30        1921          ORA #$30      ;'0'
     AB7A   8D 1C3F      1922          STA $1C3F
     AB7D   A9 30        1923          LDA #$30      ;'0'
     AB7F   8D 1C40      1924          STA $1C40
     AB82   60           1925          RTS
                         1926   ;********************************
                         1927   ;
                         1928   ;********************************
     AB83   A9 89        1929   XXAB83 LDA #$89
     AB85   8D 9124      1930          STA $9124
     AB88   A9 42        1931          LDA #$42      ;'B'
     AB8A   8D 9125      1932          STA $9125
     AB8D   A9 01        1933          LDA #$01
     AB8F   85 28        1934          STA $28
     AB91   A9 00        1935          LDA #$00
     AB93   8D 900E      1936          STA VICCRE
     AB96   A9 01        1937          LDA #$01
     AB98   85 26        1938          STA $26
     AB9A   58           1939          CLI
     AB9B   A9 68        1940   XXAB9B LDA #$68
     AB9D   8D 900F      1941          STA VICCRF
                         1942   ;
     ABA0   A9 00        1943          LDA #$00     ;<$1C00
     ABA2   85 00        1944          STA $00
     ABA4   A9 1C        1945          LDA #$1C     ;>$1C00
     ABA6   85 01        1946          STA $01
                         1947   ;
     ABA8   A2 15        1948          LDX #$15
     ABAA   A0 15        1949   XXABAA LDY #$15
     ABAC   A9 00        1950   XXABAC LDA #$00
     ABAE   91 00        1951          STA ($00),Y
.MAIN.  Commodore 6502ASM V072882    Page 2-39
   JUPITERLANDER20.asm

Error Addr  Code          Seq   Source statement

     ABB0   88           1952          DEY
     ABB1   10 F9        1953          BPL XXABAC
     ABB3   A5 00        1954          LDA $00
     ABB5   18           1955          CLC
     ABB6   69 17        1956          ADC #$17
     ABB8   85 00        1957          STA $00
     ABBA   90 02        1958          BCC XXABBE
     ABBC   E6 01        1959          INC $01
     ABBE   CA           1960   XXABBE DEX
     ABBF   D0 E9        1961          BNE XXABAA
                         1962   ;
     ABC1   A9 00        1963          LDA #$00    ;<$9400
     ABC3   85 00        1964          STA $00
     ABC5   A9 94        1965          LDA #$94    ;>$9400
     ABC7   85 01        1966          STA $01
                         1967   ;
     ABC9   A2 15        1968          LDX #$15
     ABCB   A0 15        1969   XXABCB LDY #$15
     ABCD   A9 01        1970   XXABCD LDA #$01
     ABCF   91 00        1971          STA ($00),Y
     ABD1   88           1972          DEY
     ABD2   10 F9        1973          BPL XXABCD
     ABD4   A5 00        1974          LDA $00
     ABD6   18           1975          CLC
     ABD7   69 17        1976          ADC #$17
     ABD9   85 00        1977          STA $00
     ABDB   90 02        1978          BCC XXABDF
     ABDD   E6 01        1979          INC $01
     ABDF   CA           1980   XXABDF DEX
     ABE0   D0 E9        1981          BNE XXABCB
                         1982   ;
     ABE2   A9 A8        1983          LDA #$A8    ;<$94A8
     ABE4   85 00        1984          STA $00
     ABE6   A9 94        1985          LDA #$94    ;>$94A8
     ABE8   85 01        1986          STA $01
     ABEA   A2 05        1987          LDX #$05
     ABEC   A0 04        1988   XXABEC LDY #$04
     ABEE   A9 02        1989   XXABEE LDA #$02
     ABF0   91 00        1990          STA ($00),Y
     ABF2   88           1991          DEY
     ABF3   10 F9        1992          BPL XXABEE
     ABF5   A5 00        1993          LDA $00
     ABF7   18           1994          CLC
     ABF8   69 17        1995          ADC #$17
     ABFA   85 00        1996          STA $00
     ABFC   90 02        1997          BCC XXAC00
     ABFE   E6 01        1998          INC $01
     AC00   CA           1999   XXAC00 DEX
     AC01   D0 E9        2000          BNE XXABEC
                         2001   ;********************************
.MAIN.  Commodore 6502ASM V072882    Page 2-40
   JUPITERLANDER20.asm

Error Addr  Code          Seq   Source statement

                         2002   ; DISPLAY <<INSTRUCTIONS>>
                         2003   ;********************************
     AC03   A2 15        2004          LDX #$15
     AC05   BD AC34      2005   XXAC05 LDA XXAC34,X
     AC08   9D 1C17      2006          STA $1C17,X
     AC0B   BD AC4A      2007          LDA XXAC4A,X
     AC0E   9D 1C45      2008          STA $1C45,X
     AC11   BD AC60      2009          LDA XXAC60,X
     AC14   9D 1DB5      2010          STA $1DB5,X
     AC17   CA           2011          DEX
     AC18   10 EB        2012          BPL XXAC05
                         2013   ;
     AC1A   A5 27        2014          LDA $27
     AC1C   D0 03        2015          BNE XXAC21
                         2016   ;********************************
                         2017   ; DISPLAY INPUT KEY DEFINITIONS
                         2018   ;********************************
     AC1E   4C ACA2      2019          JMP XXACA2
                         2020   ;********************************
                         2021   ; DISPLAY PUSH <F1> TO START
                         2022   ;********************************
     AC21   A2 15        2023   XXAC21 LDX #$15
     AC23   BD AC76      2024   XXAC23 LDA XXAC76,X
     AC26   9D 1D87      2025          STA $1D87,X
     AC29   BD AC8C      2026          LDA XXAC8C,X
     AC2C   9D 1DB5      2027          STA $1DB5,X
     AC2F   CA           2028          DEX
     AC30   10 F1        2029          BPL XXAC23
     AC32   30 6E        2030          BMI XXACA2
                         2031   ;********************************
                         2032   ;
                         2033   ;********************************
     AC34   00           2034   XXAC34 .BYTE $00
     AC35   00           2035          .BYTE $00
     AC36   00           2036          .BYTE $00
     AC37   00           2037          .BYTE $00
     AC38   00           2038          .BYTE $00
     AC39   00           2039          .BYTE $00
     AC3A   00           2040          .BYTE $00
     AC3B   00           2041          .BYTE $00
     AC3C   00           2042          .BYTE $00
     AC3D   00           2043          .BYTE $00
     AC3E   00           2044          .BYTE $00
     AC3F   00           2045          .BYTE $00
     AC40   00           2046          .BYTE $00
     AC41   00           2047          .BYTE $00
     AC42   00           2048          .BYTE $00
     AC43   00           2049          .BYTE $00
     AC44   00           2050          .BYTE $00
     AC45   00           2051          .BYTE $00
.MAIN.  Commodore 6502ASM V072882    Page 2-41
   JUPITERLANDER20.asm

Error Addr  Code          Seq   Source statement

     AC46   00           2052          .BYTE $00
     AC47   00           2053          .BYTE $00
     AC48   00           2054          .BYTE $00
     AC49   00           2055          .BYTE $00
                         2056   ;********************************
                         2057   ;
                         2058   ;********************************
     AC4A   00           2059   XXAC4A .BYTE $00
     AC4B   00           2060          .BYTE $00
                         2061   ; <<
     AC4C   3C           2062          .BYTE $3C
     AC4D   3C           2063          .BYTE $3C
     AC4E   00           2064          .BYTE $00
                         2065   ; INSTRUCTIONS
     AC4F   49           2066          .BYTE $49
     AC50   4E           2067          .BYTE $4E
     AC51   53           2068          .BYTE $53
     AC52   54           2069          .BYTE $54
     AC53   52           2070          .BYTE $52
     AC54   55           2071          .BYTE $55
     AC55   43           2072          .BYTE $43
     AC56   54           2073          .BYTE $54
     AC57   49           2074          .BYTE $49
     AC58   4F           2075          .BYTE $4F
     AC59   4E           2076          .BYTE $4E
     AC5A   53           2077          .BYTE $53
     AC5B   00           2078          .BYTE $00
                         2079   ; >>
     AC5C   3E           2080          .BYTE $3E
     AC5D   3E           2081          .BYTE $3E
     AC5E   00           2082          .BYTE $00
     AC5F   00           2083          .BYTE $00
                         2084   ;********************************
                         2085   ;
                         2086   ;********************************
     AC60   00           2087   XXAC60 .BYTE $00
     AC61   00           2088          .BYTE $00
                         2089   ; PUSH
     AC62   50           2090          .BYTE $50
     AC63   55           2091          .BYTE $55
     AC64   53           2092          .BYTE $53
     AC65   48           2093          .BYTE $48
     AC66   00           2094          .BYTE $00
                         2095   ; <F1>
     AC67   3C           2096          .BYTE $3C
     AC68   46           2097          .BYTE $46
     AC69   31           2098          .BYTE $31
     AC6A   3E           2099          .BYTE $3E
     AC6B   00           2100          .BYTE $00
                         2101   ; TO
.MAIN.  Commodore 6502ASM V072882    Page 2-42
   JUPITERLANDER20.asm

Error Addr  Code          Seq   Source statement

     AC6C   54           2102          .BYTE $54
     AC6D   4F           2103          .BYTE $4F
     AC6E   00           2104          .BYTE $00
                         2105   ; START
     AC6F   53           2106          .BYTE $53
     AC70   54           2107          .BYTE $54
     AC71   41           2108          .BYTE $41
     AC72   52           2109          .BYTE $52
     AC73   54           2110          .BYTE $54
     AC74   00           2111          .BYTE $00
     AC75   00           2112          .BYTE $00
                         2113   ;********************************
                         2114   ;
                         2115   ;********************************
     AC76   00           2116   XXAC76 .BYTE $00
     AC77   00           2117          .BYTE $00
                         2118   ; BY
     AC78   42           2119          .BYTE $42
     AC79   59           2120          .BYTE $59
     AC7A   00           2121          .BYTE $00
                         2122   ; HITOSH
     AC7B   48           2123          .BYTE $48
     AC7C   49           2124          .BYTE $49
     AC7D   54           2125          .BYTE $54
     AC7E   4F           2126          .BYTE $4F
     AC7F   53           2127          .BYTE $53
     AC80   48           2128          .BYTE $48
     AC81   49           2129          .BYTE $49
     AC82   00           2130          .BYTE $00
                         2131   ; SUZUKI
     AC83   53           2132          .BYTE $53
     AC84   55           2133          .BYTE $55
     AC85   5A           2134          .BYTE $5A
     AC86   55           2135          .BYTE $55
     AC87   4B           2136          .BYTE $4B
     AC88   49           2137          .BYTE $49
     AC89   00           2138          .BYTE $00
     AC8A   00           2139          .BYTE $00
     AC8B   00           2140          .BYTE $00
                         2141   ;********************************
                         2142   ;
                         2143   ;********************************
     AC8C   00           2144   XXAC8C .BYTE $00
     AC8D   00           2145          .BYTE $00
     AC8E   00           2146          .BYTE $00
     AC8F   00           2147          .BYTE $00
     AC90   00           2148          .BYTE $00
     AC91   00           2149          .BYTE $00
                         2150   ; HAL
     AC92   48           2151          .BYTE $48
.MAIN.  Commodore 6502ASM V072882    Page 2-43
   JUPITERLANDER20.asm

Error Addr  Code          Seq   Source statement

     AC93   41           2152          .BYTE $41
     AC94   4C           2153          .BYTE $4C
     AC95   00           2154          .BYTE $00
                         2155   ; LABORATORIES
     AC96   4C           2156          .BYTE $4C
     AC97   41           2157          .BYTE $41
     AC98   42           2158          .BYTE $42
     AC99   4F           2159          .BYTE $4F
     AC9A   52           2160          .BYTE $52
     AC9B   41           2161          .BYTE $41
     AC9C   54           2162          .BYTE $54
     AC9D   4F           2163          .BYTE $4F
     AC9E   52           2164          .BYTE $52
     AC9F   59           2165          .BYTE $59
     ACA0   00           2166          .BYTE $00
     ACA1   00           2167          .BYTE $00
                         2168   ;********************************
                         2169   ; DISPLAY KEY INPUTS ON INSTRUCTIONS
                         2170   ;********************************
     ACA2   A9 41        2171   XXACA2 LDA #$41      ;'A'
     ACA4   8D 1D49      2172          STA $1D49
                         2173   ;
     ACA7   A9 44        2174          LDA #$44      ;'D'
     ACA9   8D 1D4D      2175          STA $1D4D
                         2176   ;
     ACAC   A9 46        2177          LDA #$46      ;'F'
     ACAE   8D 1CAF      2178          STA $1CAF
     ACB1   8D 1CDD      2179          STA $1CDD
     ACB4   8D 1D0B      2180          STA $1D0B
                         2181   ;
     ACB7   A9 31        2182          LDA #$31      ;'1'
     ACB9   8D 1CB0      2183          STA $1CB0
                         2184   ;
     ACBC   A9 33        2185          LDA #$33      ;'3'
     ACBE   8D 1CDE      2186          STA $1CDE
                         2187   ;
     ACC1   A9 35        2188          LDA #$35      ;'5'
     ACC3   8D 1D0C      2189          STA $1D0C
                         2190   ;
     ACC6   A9 4F        2191          LDA #$4F      ;'O'
     ACC8   8D 1CF9      2192          STA $1CF9
     ACCB   A9 4B        2193          LDA #$4B      ;'K'
     ACCD   8D 1CFA      2194          STA $1CFA
     ACD0   A9 5F        2195          LDA #$5F      ;'_'
     ACD2   8D 1CFB      2196          STA $1CFB
                         2197   ;
     ACD5   A9 4E        2198          LDA #$4E      ;'N'
     ACD7   8D 1D55      2199          STA $1D55
     ACDA   A9 47        2200          LDA #$47      ;'G'
     ACDC   8D 1D56      2201          STA $1D56
.MAIN.  Commodore 6502ASM V072882    Page 2-44
   JUPITERLANDER20.asm

Error Addr  Code          Seq   Source statement

     ACDF   A9 5F        2202          LDA #$5F      ;'_'
     ACE1   8D 1D57      2203          STA $1D57
                         2204   ;
     ACE4   A9 00        2205          LDA #$00
     ACE6   85 17        2206          STA $17
     ACE8   85 15        2207          STA $15
     ACEA   A9 14        2208          LDA #$14
     ACEC   85 14        2209          STA $14
     ACEE   20 AEF3      2210          JSR XXAEF3
                         2211   ;
     ACF1   A9 01        2212          LDA #$01
     ACF3   85 2E        2213          STA $2E
     ACF5   85 25        2214          STA $25
     ACF7   A9 3C        2215          LDA #$3C      ;'<'
     ACF9   85 29        2216          STA $29
     ACFB   A9 5C        2217          LDA #$5C      ;'\'
     ACFD   85 2A        2218          STA $2A
     ACFF   A9 FF        2219          LDA #$FF
     AD01   85 2D        2220          STA $2D
     AD03   A9 C8        2221          LDA #$C8
     AD05   85 0A        2222          STA $0A
     AD07   A9 10        2223          LDA #$10
     AD09   85 0B        2224          STA $0B
     AD0B   A9 00        2225          LDA #$00
     AD0D   85 1B        2226          STA $1B
     AD0F   85 1A        2227          STA $1A
     AD11   20 A3BE      2228          JSR XXA3BE
                         2229   ;
     AD14   A2 5A        2230          LDX #$5A      ;'Z'
     AD16   20 B0CC      2231          JSR DELAY1
     AD19   A9 02        2232          LDA #$02
     AD1B   85 53        2233          STA $53
     AD1D   A9 00        2234   XXAD1D LDA #$00
     AD1F   8D 9549      2235          STA $9549
     AD22   A9 01        2236          LDA #$01
     AD24   85 1B        2237          STA $1B
     AD26   20 A3BE      2238          JSR XXA3BE
                         2239   ;
     AD29   A2 5A        2240          LDX #$5A      ;'Z'
     AD2B   20 B0CC      2241          JSR DELAY1
     AD2E   A9 01        2242          LDA #$01
     AD30   8D 9549      2243          STA $9549
     AD33   A9 00        2244          LDA #$00
     AD35   85 1B        2245          STA $1B
     AD37   20 A3BE      2246          JSR XXA3BE
                         2247   ;
     AD3A   A2 5A        2248          LDX #$5A      ;'Z'
     AD3C   20 B0CC      2249          JSR DELAY1
     AD3F   A9 00        2250          LDA #$00
     AD41   8D 954D      2251          STA $954D
.MAIN.  Commodore 6502ASM V072882    Page 2-45
   JUPITERLANDER20.asm

Error Addr  Code          Seq   Source statement

     AD44   A9 02        2252          LDA #$02
     AD46   85 1B        2253          STA $1B
     AD48   20 A3BE      2254          JSR XXA3BE
                         2255   ;
     AD4B   A2 5A        2256          LDX #$5A      ;'Z'
     AD4D   20 B0CC      2257          JSR DELAY1
     AD50   A9 01        2258          LDA #$01
     AD52   8D 954D      2259          STA $954D
     AD55   A9 00        2260          LDA #$00
     AD57   85 1B        2261          STA $1B
     AD59   20 A3BE      2262          JSR XXA3BE
                         2263   ;
     AD5C   A2 5A        2264          LDX #$5A      ;'Z'
     AD5E   20 B0CC      2265          JSR DELAY1
     AD61   A9 00        2266          LDA #$00
     AD63   8D 94AF      2267          STA $94AF
     AD66   8D 94B0      2268          STA $94B0
     AD69   A9 03        2269          LDA #$03
     AD6B   85 1A        2270          STA $1A
     AD6D   20 A3BE      2271          JSR XXA3BE
                         2272   ;
     AD70   A2 5A        2273          LDX #$5A      ;'Z'
     AD72   20 B0CC      2274          JSR DELAY1
     AD75   A9 01        2275          LDA #$01
     AD77   8D 94AF      2276          STA $94AF
     AD7A   8D 94B0      2277          STA $94B0
     AD7D   A9 00        2278          LDA #$00
     AD7F   85 1A        2279          STA $1A
     AD81   20 A3BE      2280          JSR XXA3BE
                         2281   ;
     AD84   A2 5A        2282          LDX #$5A      ;'Z'
     AD86   20 B0CC      2283          JSR DELAY1
     AD89   A9 00        2284          LDA #$00
     AD8B   8D 94DD      2285          STA $94DD
     AD8E   8D 94DE      2286          STA $94DE
     AD91   A9 02        2287          LDA #$02
     AD93   85 1A        2288          STA $1A
     AD95   20 A3BE      2289          JSR XXA3BE
                         2290   ;
     AD98   A2 5A        2291          LDX #$5A      ;'Z'
     AD9A   20 B0CC      2292          JSR DELAY1
     AD9D   A9 01        2293          LDA #$01
     AD9F   8D 94DD      2294          STA $94DD
     ADA2   8D 94DE      2295          STA $94DE
     ADA5   A9 00        2296          LDA #$00
     ADA7   85 1A        2297          STA $1A
     ADA9   20 A3BE      2298          JSR XXA3BE
                         2299   ;
     ADAC   A2 5A        2300          LDX #$5A      ;'Z'
     ADAE   20 B0CC      2301          JSR DELAY1
.MAIN.  Commodore 6502ASM V072882    Page 2-46
   JUPITERLANDER20.asm

Error Addr  Code          Seq   Source statement

     ADB1   A9 00        2302          LDA #$00
     ADB3   8D 950B      2303          STA $950B
     ADB6   8D 950C      2304          STA $950C
     ADB9   A9 01        2305          LDA #$01
     ADBB   85 1A        2306          STA $1A
     ADBD   20 A3BE      2307          JSR XXA3BE
                         2308   ;
     ADC0   A2 5A        2309          LDX #$5A      ;'Z'
     ADC2   20 B0CC      2310          JSR DELAY1
     ADC5   A9 01        2311          LDA #$01
     ADC7   8D 950B      2312          STA $950B
     ADCA   8D 950C      2313          STA $950C
     ADCD   A9 00        2314          LDA #$00
     ADCF   85 1A        2315          STA $1A
     ADD1   20 A3BE      2316          JSR XXA3BE
                         2317   ;
     ADD4   A2 5A        2318          LDX #$5A      ;'Z'
     ADD6   20 B0CC      2319          JSR DELAY1
     ADD9   C6 53        2320          DEC $53
     ADDB   F0 03        2321          BEQ XXADE0
                         2322   ;
     ADDD   4C AD1D      2323          JMP XXAD1D
                         2324   ;********************************
                         2325   ;
                         2326   ;********************************
     ADE0   A2 00        2327   XXADE0 LDX #$00
     ADE2   20 B0CC      2328          JSR DELAY1
     ADE5   A9 FF        2329          LDA #$FF
     ADE7   85 20        2330          STA $20
     ADE9   85 2E        2331          STA $2E
     ADEB   A9 08        2332          LDA #$08
     ADED   8D 900F      2333          STA VICCRF
     ADF0   A9 04        2334          LDA #$04
     ADF2   85 18        2335          STA $18
     ADF4   A9 00        2336          LDA #$00
     ADF6   85 0C        2337          STA $0C
     ADF8   85 11        2338          STA $11
     ADFA   85 0E        2339          STA $0E
     ADFC   85 13        2340          STA $13
     ADFE   A9 14        2341          LDA #$14
     AE00   85 0D        2342          STA $0D
     AE02   A9 54        2343          LDA #$54      ;'T'
     AE04   85 12        2344          STA $12
     AE06   A9 00        2345          LDA #$00
     AE08   85 14        2346          STA $14
     AE0A   85 15        2347          STA $15
     AE0C   E6 19        2348          INC $19
     AE0E   A5 19        2349          LDA $19
     AE10   29 03        2350          AND #$03
     AE12   AA           2351          TAX
.MAIN.  Commodore 6502ASM V072882    Page 2-47
   JUPITERLANDER20.asm

Error Addr  Code          Seq   Source statement

     AE13   BD AE44      2352          LDA XXAE44,X
     AE16   85 0F        2353          STA $0F
     AE18   BD AE48      2354          LDA XXAE48,X
     AE1B   85 10        2355          STA $10
     AE1D   A9 01        2356          LDA #$01
     AE1F   85 17        2357          STA $17
     AE21   A9 00        2358          LDA #$00
     AE23   85 1A        2359          STA $1A
     AE25   85 1B        2360          STA $1B
     AE27   20 A257      2361   XXAE27 JSR XXA257
     AE2A   20 A130      2362          JSR XXA130
     AE2D   20 AF1B      2363          JSR XXAF1B
     AE30   A2 03        2364          LDX #$03
     AE32   20 B0CC      2365          JSR DELAY1
     AE35   A5 21        2366          LDA $21
     AE37   F0 EE        2367          BEQ XXAE27
     AE39   20 A7DC      2368          JSR XXA7DC
     AE3C   A2 00        2369          LDX #$00
     AE3E   20 B0CC      2370          JSR DELAY1
     AE41   4C AB9B      2371          JMP XXAB9B
                         2372   ;********************************
                         2373   ; DATA AE44-AE4B
                         2374   ;********************************
     AE44   FF           2375   XXAE44 .BYTE $FF
     AE45   7F           2376          .BYTE $7F
     AE46   50           2377          .BYTE $50
     AE47   80           2378          .BYTE $80
     AE48   00           2379   XXAE48 .BYTE $00
     AE49   00           2380          .BYTE $00
     AE4A   00           2381          .BYTE $00
     AE4B   01           2382          .BYTE $01
                         2383   ;********************************
                         2384   ;
                         2385   ;********************************
     AE4C   AD 9124      2386   ZZAE4C  LDA $9124    ;VIA2TI
     AE4F   A2 02        2387           LDX #$02
     AE51   BD AEA7      2388   XXAE51  LDA XXAEA7,X ;SET KEYBOARD COLUMN TO SCAN
     AE54   8D 9120      2389           STA $9120    ;VIA2PB
                         2390   ;********************************
                         2391   ; WAIT ON KEY PRESS
                         2392   ;********************************
     AE57   AD 9121      2393   XXAE57  LDA $9121    ;VIA2PA
     AE5A   CD 9121      2394           CMP $9121
     AE5D   D0 F8        2395           BNE XXAE57
                         2396   ;********************************
                         2397   ;
                         2398   ;********************************
     AE5F   3D AEAA      2399           AND XXAEAA,X
     AE62   D0 10        2400           BNE XXAE74
     AE64   CA           2401           DEX
.MAIN.  Commodore 6502ASM V072882    Page 2-48
   JUPITERLANDER20.asm

Error Addr  Code          Seq   Source statement

     AE65   10 EA        2402           BPL XXAE51
     AE67   30 0B        2403           BMI XXAE74
                         2404   
     AE69   A2 1F        2405           LDX #$1F
     AE6B   BD BA44      2406   XXAE6B  LDA XXBA44,X
     AE6E   9D 1460      2407           STA $1460,X
     AE71   CA           2408           DEX
     AE72   10 F7        2409           BPL XXAE6B
     AE74   C6 28        2410   XXAE74  DEC $28
     AE76   D0 19        2411           BNE XXAE91
     AE78   A9 0A        2412           LDA #$0A
     AE7A   85 28        2413           STA $28
     AE7C   A9 FB        2414           LDA #$FB
     AE7E   8D 9120      2415           STA $9120
     AE81   AD 9121      2416           LDA $9121
     AE84   30 0B        2417           BMI XXAE91
     AE86   AD 9000      2418           LDA $9000
     AE89   18           2419           CLC
     AE8A   69 01        2420           ADC #$01
     AE8C   29 0F        2421           AND #$0F
     AE8E   8D 9000      2422           STA $9000
     AE91   A9 EF        2423   XXAE91  LDA #$EF
     AE93   8D 9120      2424           STA $9120
     AE96   AD 9121      2425           LDA $9121
     AE99   30 06        2426           BMI XXAEA1
     AE9B   A2 FA        2427           LDX #$FA
     AE9D   9A           2428           TXS
     AE9E   4C A075      2429           JMP XXA075
                         2430   ;********************************
                         2431   ;
                         2432   ;********************************
     AEA1   68           2433   XXAEA1  PLA      ;.BYTE $68
     AEA2   A8           2434           TAY      ;.BYTE $A8
     AEA3   68           2435           PLA      ;.BYTE $68
     AEA4   AA           2436           TAX      ;.BYTE $AA
     AEA5   68           2437           PLA      ;.BYTE $68
     AEA6   40           2438           RTI      ;.BYTE $40
                         2439   ;********************************
                         2440   ; KEYBOARD COLUMN TO SCAN
                         2441   ;********************************
     AEA7   F7           2442   XXAEA7 .BYTE $F7 ;1111 0111
     AEA8   EF           2443          .BYTE $EF ;1110 1111 F1
     AEA9   DF           2444          .BYTE $DF ;1101 1111 F3
                         2445   ;********************************
                         2446   ;
                         2447   ;********************************
     AEAA   02           2448   XXAEAA .BYTE $02
     AEAB   40           2449          .BYTE $40
     AEAC   01           2450          .BYTE $01
                         2451   ;********************************
.MAIN.  Commodore 6502ASM V072882    Page 2-49
   JUPITERLANDER20.asm

Error Addr  Code          Seq   Source statement

                         2452   ;
                         2453   ;********************************
     AEAD   A0 00        2454   XXAEAD  LDY #$00
     AEAF   A2 02        2455           LDX #$02
     AEB1   BD AEE9      2456   XXAEB1  LDA XXAEE9,X
     AEB4   8D 9120      2457           STA $9120    ;SET KEYBOARD COLUMN TO SCAN
                         2458   ;********************************
                         2459   ; WAIT ON KEY PRESS
                         2460   ;********************************
     AEB7   AD 9121      2461   XXAEB7  LDA $9121
     AEBA   CD 9121      2462           CMP $9121
     AEBD   D0 F8        2463           BNE XXAEB7
                         2464   ;********************************
                         2465   ;
                         2466   ;********************************
     AEBF   0A           2467           ASL A
     AEC0   B0 03        2468           BCS XXAEC5
     AEC2   BC AEEC      2469           LDY XXAEEC,X
                         2470   ;********************************
                         2471   ; LOOP WAITING ON KEYPRESS
                         2472   ;********************************
     AEC5   CA           2473   XXAEC5  DEX
     AEC6   10 E9        2474           BPL XXAEB1
     AEC8   84 1A        2475           STY $1A
     AECA   A0 00        2476           LDY #$00
     AECC   A2 01        2477           LDX #$01
                         2478   ;********************************
                         2479   ; LOAD KEYBOARD COLUMN FOR A & D
                         2480   ;********************************
     AECE   A9 FB        2481           LDA #$FB
     AED0   8D 9120      2482           STA $9120
                         2483   ;********************************
                         2484   ; LOOP WAITING ON KEYPRESS
                         2485   ;********************************
     AED3   AD 9121      2486   XXAED3  LDA $9121
     AED6   CD 9121      2487           CMP $9121
     AED9   D0 EA        2488           BNE XXAEC5
                         2489   ;********************************
     AEDB   3D AEEF      2490           AND XXAEEF,X
     AEDE   D0 03        2491           BNE XXAEE3
     AEE0   BC AEF1      2492           LDY XXAEF1,X
     AEE3   CA           2493   XXAEE3  DEX
     AEE4   10 ED        2494           BPL XXAED3
     AEE6   84 1B        2495           STY $1B
     AEE8   60           2496           RTS
                         2497   ;********************************
                         2498   ; KEYBOARD COLUMN TO SCAN
                         2499   ;********************************
     AEE9   BF           2500   XXAEE9 .BYTE $BF ;1011 1111 F5
     AEEA   DF           2501          .BYTE $DF ;1101 1111 F3
.MAIN.  Commodore 6502ASM V072882    Page 2-50
   JUPITERLANDER20.asm

Error Addr  Code          Seq   Source statement

     AEEB   EF           2502          .BYTE $EF ;1110 1111 F1
                         2503   ;********************************
                         2504   ;
                         2505   ;********************************
     AEEC   01           2506   XXAEEC .BYTE $01
     AEED   02           2507          .BYTE $02
     AEEE   03           2508          .BYTE $03
                         2509   ;********************************
                         2510   ;
                         2511   ;********************************
     AEEF   04           2512   XXAEEF .BYTE $04
     AEF0   02           2513          .BYTE $02
                         2514   	
     AEF1   02           2515   XXAEF1 .BYTE $02
     AEF2   01           2516          .BYTE $01
                         2517   ;********************************
                         2518   ;
                         2519   ;********************************
     AEF3   A5 17        2520   XXAEF3 LDA $17
     AEF5   4A           2521          LSR A
     AEF6   48           2522          PHA
     AEF7   4A           2523          LSR A
     AEF8   4A           2524          LSR A
     AEF9   4A           2525          LSR A
     AEFA   A8           2526          TAY
     AEFB   AA           2527          TAX
     AEFC   F0 08        2528          BEQ XXAF06
     AEFE   A9 01        2529          LDA #$01
     AF00   9D 1DFF      2530   XXAF00 STA $1DFF,X
     AF03   CA           2531          DEX
     AF04   D0 FA        2532          BNE XXAF00
     AF06   68           2533   XXAF06 PLA
     AF07   29 07        2534          AND #$07
     AF09   18           2535          CLC
     AF0A   69 10        2536          ADC #$10
     AF0C   99 1E00      2537          STA $1E00,Y
     AF0F   A9 00        2538          LDA #$00
     AF11   C0 0F        2539   XXAF11 CPY #$0F
     AF13   F0 06        2540          BEQ XXAF1B
     AF15   99 1E01      2541          STA $1E01,Y
     AF18   C8           2542          INY
     AF19   D0 F6        2543          BNE XXAF11
     AF1B   A5 15        2544   XXAF1B LDA $15
     AF1D   C9 02        2545          CMP #$02
     AF1F   90 04        2546          BCC XXAF25
     AF21   C9 FE        2547          CMP #$FE
     AF23   90 45        2548          BCC XXAF6A
     AF25   85 35        2549   XXAF25 STA $35
     AF27   A5 14        2550          LDA $14
     AF29   46 35        2551          LSR $35
.MAIN.  Commodore 6502ASM V072882    Page 2-51
   JUPITERLANDER20.asm

Error Addr  Code          Seq   Source statement

     AF2B   6A           2552          ROR A
     AF2C   46 35        2553          LSR $35
     AF2E   6A           2554          ROR A
     AF2F   48           2555          PHA
     AF30   A9 00        2556          LDA #$00
     AF32   85 00        2557          STA $00
     AF34   A9 1C        2558          LDA #$1C
     AF36   85 01        2559          STA $01
     AF38   A2 10        2560          LDX #$10
     AF3A   A0 44        2561          LDY #$44      ;'D'
     AF3C   A9 0B        2562   XXAF3C LDA #$0B
     AF3E   91 00        2563          STA ($00),Y
     AF40   98           2564          TYA
     AF41   18           2565          CLC
     AF42   69 17        2566          ADC #$17
     AF44   A8           2567          TAY
     AF45   90 02        2568          BCC XXAF49
     AF47   E6 01        2569          INC $01
     AF49   CA           2570   XXAF49 DEX
     AF4A   D0 F0        2571          BNE XXAF3C
     AF4C   68           2572          PLA
     AF4D   18           2573          CLC
     AF4E   69 80        2574          ADC #$80
     AF50   4A           2575          LSR A
     AF51   48           2576          PHA
     AF52   4A           2577          LSR A
     AF53   4A           2578          LSR A
     AF54   4A           2579          LSR A
     AF55   AA           2580          TAX
     AF56   BD A494      2581          LDA XXA494,X
     AF59   85 00        2582          STA $00
     AF5B   BD A4AF      2583          LDA XXA4AF,X
     AF5E   85 01        2584          STA $01
     AF60   68           2585          PLA
     AF61   29 07        2586          AND #$07
     AF63   18           2587          CLC
     AF64   69 18        2588          ADC #$18
     AF66   A0 16        2589          LDY #$16
     AF68   91 00        2590          STA ($00),Y
     AF6A   60           2591   XXAF6A RTS
                         2592   ;********************************
                         2593   ; DRAW MAIN GAME PLAY SCREEN
                         2594   ; 1 OF 4 POSSIBLE RAM LOCATIONS
                         2595   ; SCREEN ID
                         2596   ; 0 = MAIN PLAY SCREEN
                         2597   ; 1 = x5   PILLAR
                         2598   ; 2 = X2   PILLAR
                         2599   ; 3 = X10  PILLAR
                         2600   ;********************************
     AF6B   A6 20        2601   XXAF6B LDX $20
.MAIN.  Commodore 6502ASM V072882    Page 2-52
   JUPITERLANDER20.asm

Error Addr  Code          Seq   Source statement

     AF6D   BD AFCD      2602          LDA XXAFCD,X
     AF70   85 00        2603          STA $00
     AF72   BD AFD1      2604          LDA XXAFD1,X
     AF75   85 01        2605          STA $01
     AF77   A9 00        2606          LDA #$00
     AF79   85 02        2607          STA $02
     AF7B   A9 1C        2608          LDA #$1C
     AF7D   85 03        2609          STA $03
     AF7F   A9 00        2610          LDA #$00
     AF81   85 04        2611          STA $04
     AF83   A9 94        2612          LDA #$94
     AF85   85 05        2613          STA $05
     AF87   A0 00        2614          LDY #$00
     AF89   84 36        2615          STY $36
     AF8B   A0 00        2616   XXAF8B LDY #$00
     AF8D   84 37        2617          STY $37
     AF8F   A4 36        2618   XXAF8F LDY $36
     AF91   B1 00        2619          LDA ($00),Y
     AF93   D0 01        2620          BNE XXAF96
     AF95   60           2621          RTS
                         2622   ;********************************
                         2623   ;
                         2624   ;********************************
     AF96   AA           2625   XXAF96 TAX
     AF97   C8           2626          INY
     AF98   B1 00        2627          LDA ($00),Y
     AF9A   C8           2628          INY
     AF9B   84 36        2629          STY $36
     AF9D   D0 02        2630          BNE XXAFA1
     AF9F   E6 01        2631          INC $01
     AFA1   A4 37        2632   XXAFA1 LDY $37
     AFA3   91 02        2633   XXAFA3 STA ($02),Y
     AFA5   48           2634          PHA
     AFA6   C9 01        2635          CMP #$01
     AFA8   A9 05        2636          LDA #$05
     AFAA   B0 02        2637          BCS XXAFAE
     AFAC   A9 03        2638          LDA #$03
     AFAE   91 04        2639   XXAFAE STA ($04),Y
     AFB0   68           2640          PLA
     AFB1   C0 15        2641          CPY #$15
     AFB3   F0 08        2642          BEQ XXAFBD
     AFB5   C8           2643          INY
     AFB6   CA           2644          DEX
     AFB7   D0 EA        2645          BNE XXAFA3
     AFB9   84 37        2646          STY $37
     AFBB   F0 D2        2647          BEQ XXAF8F
     AFBD   A5 02        2648   XXAFBD LDA $02
     AFBF   69 16        2649          ADC #$16
     AFC1   85 02        2650          STA $02
     AFC3   85 04        2651          STA $04
.MAIN.  Commodore 6502ASM V072882    Page 2-53
   JUPITERLANDER20.asm

Error Addr  Code          Seq   Source statement

     AFC5   90 C4        2652          BCC XXAF8B
     AFC7   E6 03        2653          INC $03
     AFC9   E6 05        2654          INC $05
     AFCB   B0 BE        2655          BCS XXAF8B
                         2656   ;********************************
                         2657   ; POINTERS TO GRAPHIC DATA
                         2658   ; FOR MAIN GAME PLAY SCREEN
                         2659   ;********************************
     AFCD   64           2660   XXAFCD .BYTE <ZZBA64 ;$64 ;$BA64 MAIN GAME PLAY SCREEN
     AFCE   79           2661          .BYTE <ZZBB79 ;$79 ;$BB79 ZOOM LEVEL x5
     AFCF   2A           2662          .BYTE <ZZBC2A ;$2A ;$BC2A ZOOM LEVEL x2
     AFD0   B7           2663          .BYTE <ZZBCB7 ;$B7 ;$BCB7 ZOOM LEVEL x10
                         2664   ;
     AFD1   BA           2665   XXAFD1 .BYTE >ZZBA64 ;$BA
     AFD2   BB           2666          .BYTE >ZZBB79 ;$BB
     AFD3   BC           2667          .BYTE >ZZBC2A ;$BC
     AFD4   BC           2668          .BYTE >ZZBCB7 ;$BC
                         2669   ;********************************
                         2670   ;
                         2671   ;********************************
     AFD5   01           2672   XXAFD5 .BYTE $01
     AFD6   01           2673          .BYTE $01
     AFD7   01           2674          .BYTE $01
     AFD8   01           2675          .BYTE $01
     AFD9   01           2676          .BYTE $01
     AFDA   01           2677          .BYTE $01
     AFDB   01           2678          .BYTE $01
     AFDC   01           2679          .BYTE $01
     AFDD   01           2680          .BYTE $01
     AFDE   01           2681          .BYTE $01
     AFDF   01           2682          .BYTE $01
     AFE0   01           2683          .BYTE $01
     AFE1   01           2684          .BYTE $01
     AFE2   01           2685          .BYTE $01
     AFE3   01           2686          .BYTE $01
     AFE4   01           2687          .BYTE $01
     AFE5   01           2688          .BYTE $01
     AFE6   01           2689          .BYTE $01
     AFE7   01           2690          .BYTE $01
     AFE8   01           2691          .BYTE $01
     AFE9   01           2692          .BYTE $01
     AFEA   01           2693          .BYTE $01
     AFEB   01           2694          .BYTE $01
     AFEC   02           2695          .BYTE $02
     AFED   01           2696          .BYTE $01
     AFEE   01           2697          .BYTE $01
     AFEF   01           2698          .BYTE $01
     AFF0   01           2699          .BYTE $01
     AFF1   01           2700          .BYTE $01
     AFF2   06           2701          .BYTE $06
.MAIN.  Commodore 6502ASM V072882    Page 2-54
   JUPITERLANDER20.asm

Error Addr  Code          Seq   Source statement

     AFF3   06           2702          .BYTE $06
     AFF4   06           2703          .BYTE $06
     AFF5   06           2704          .BYTE $06
     AFF6   06           2705          .BYTE $06
     AFF7   06           2706          .BYTE $06
     AFF8   06           2707          .BYTE $06
     AFF9   06           2708          .BYTE $06
     AFFA   06           2709          .BYTE $06
     AFFB   06           2710          .BYTE $06
     AFFC   06           2711          .BYTE $06
     AFFD   06           2712          .BYTE $06
     AFFE   06           2713          .BYTE $06
     AFFF   06           2714          .BYTE $06
     B000   06           2715          .BYTE $06
     B001   06           2716          .BYTE $06
     B002   02           2717          .BYTE $02
                         2718   ;********************************
                         2719   ;
                         2720   ;********************************
     B003   00 53 43     2721   XXB003 .BYTE $00,$53,$43,$4F,$52,$45,$3A ;SCORE:
     B006   4F 52 45 
     B009   3A 
                         2722          ;.BYTE $53
                         2723          ;.BYTE $43
                         2724          ;.BYTE $4F
                         2725          ;.BYTE $52
                         2726          ;.BYTE $45
                         2727          ;.BYTE $3A
     B00A   00           2728          .BYTE $00
     B00B   00           2729          .BYTE $00
     B00C   00           2730          .BYTE $00
     B00D   00           2731          .BYTE $00
     B00E   30           2732          .BYTE $30
     B00F   00           2733          .BYTE $00
     B010   00           2734          .BYTE $00
     B011   48           2735          .BYTE $48
     B012   49           2736          .BYTE $49
     B013   3A           2737          .BYTE $3A
     B014   00           2738          .BYTE $00
     B015   00           2739          .BYTE $00
     B016   00           2740          .BYTE $00
     B017   00           2741          .BYTE $00
     B018   30           2742          .BYTE $30
     B019   00           2743          .BYTE $00
     B01A   00           2744          .BYTE $00
                         2745   ;
     B01B   46 55 45     2746          .BYTE $46,$55,$45,$4C,$3A ;FUEL:
     B01E   4C 3A 
                         2747          ;.BYTE $55
                         2748          ;.BYTE $45
.MAIN.  Commodore 6502ASM V072882    Page 2-55
   JUPITERLANDER20.asm

Error Addr  Code          Seq   Source statement

                         2749          ;.BYTE $4C
                         2750          ;.BYTE $3A
                         2751   
     B020   00           2752          .BYTE $00
     B021   00           2753          .BYTE $00
     B022   00           2754          .BYTE $00
     B023   00           2755          .BYTE $00
     B024   00           2756          .BYTE $00
     B025   00           2757          .BYTE $00
     B026   00           2758          .BYTE $00
     B027   00           2759          .BYTE $00
     B028   00           2760          .BYTE $00
     B029   00           2761          .BYTE $00
     B02A   00           2762          .BYTE $00
     B02B   00           2763          .BYTE $00
     B02C   00           2764          .BYTE $00
     B02D   00           2765          .BYTE $00
     B02E   00           2766          .BYTE $00
     B02F   00           2767          .BYTE $00
     B030   00           2768          .BYTE $00
                         2769   ;********************************
                         2770   ;
                         2771   ;********************************
                         2772   ; DISPLAY INSTRUCTION SCREEN
                         2773   ;********************************
     B031   A2 00        2774   XXB031 LDX #$00
     B033   BD 8000      2775   XXB033 LDA $8000,X
     B036   9D 1600      2776          STA $1600,X
     B039   E8           2777          INX
                         2778   ;
     B03A   D0 F7        2779          BNE XXB033
     B03C   A2 7F        2780          LDX #$7F
     B03E   BD 8180      2781   XXB03E LDA $8180,X
     B041   9D 1580      2782          STA $1580,X
     B044   CA           2783          DEX
     B045   10 F7        2784          BPL XXB03E
                         2785   ;
     B047   A2 00        2786          LDX #$00
     B049   BD B8C4      2787   XXB049 LDA XXB8C4,X
     B04C   9D 1400      2788          STA $1400,X
     B04F   E8           2789          INX
     B050   D0 F7        2790          BNE XXB049
                         2791   ;
     B052   A2 7F        2792          LDX #$7F
     B054   BD B9C4      2793   XXB054 LDA XXB9C4,X
     B057   9D 1500      2794          STA $1500,X
     B05A   CA           2795          DEX
     B05B   10 F7        2796          BPL XXB054
                         2797   ;
     B05D   A9 00        2798   XXB05D LDA #$00
.MAIN.  Commodore 6502ASM V072882    Page 2-56
   JUPITERLANDER20.asm

Error Addr  Code          Seq   Source statement

     B05F   85 00        2799          STA $00
     B061   A9 94        2800          LDA #$94
     B063   85 01        2801          STA $01
     B065   A0 16        2802          LDY #$16
     B067   A9 01        2803          LDA #$01
     B069   91 00        2804          STA ($00),Y
     B06B   A2 12        2805          LDX #$12
     B06D   98           2806   XXB06D TYA
     B06E   18           2807          CLC
     B06F   69 17        2808          ADC #$17
     B071   A8           2809          TAY
     B072   90 02        2810          BCC XXB076
     B074   E6 01        2811          INC $01
     B076   A9 05        2812   XXB076 LDA #$05
     B078   91 00        2813          STA ($00),Y
     B07A   CA           2814          DEX
     B07B   D0 F0        2815          BNE XXB06D
     B07D   A9 07        2816          LDA #$07
     B07F   8D 94FC      2817          STA $94FC
     B082   A2 2D        2818          LDX #$2D      ;'-'
     B084   BD AFD5      2819   XXB084 LDA XXAFD5,X
     B087   9D 95E3      2820          STA $95E3,X
     B08A   CA           2821          DEX
     B08B   10 F7        2822          BPL XXB084
                         2823   ;********************************
                         2824   ; DISPLAY GAME SCREEN
                         2825   ;********************************
     B08D   A2 2D        2826          LDX #$2D      ;'-'
     B08F   BD B003      2827   XXB08F LDA XXB003,X
     B092   9D 1DE3      2828          STA $1DE3,X
     B095   CA           2829          DEX
     B096   10 F7        2830          BPL XXB08F
                         2831   ;
     B098   A9 08        2832          LDA #$08
     B09A   8D 1C16      2833          STA $1C16
     B09D   A9 09        2834          LDA #$09
     B09F   8D 1C2D      2835          STA $1C2D
     B0A2   A9 0A        2836          LDA #$0A
     B0A4   8D 1DB4      2837          STA $1DB4
     B0A7   A9 00        2838          LDA #$00
     B0A9   8D 1DCB      2839          STA $1DCB
     B0AC   8D 1DE2      2840          STA $1DE2
     B0AF   A2 7F        2841          LDX #$7F
                         2842   ;
     B0B1   A9 00        2843          LDA #$00
     B0B3   9D 10C8      2844   XXB0B3 STA $10C8,X
     B0B6   CA           2845          DEX
     B0B7   10 FA        2846          BPL XXB0B3
                         2847   ;
     B0B9   A2 5B        2848          LDX #$5B      ;'['
.MAIN.  Commodore 6502ASM V072882    Page 2-57
   JUPITERLANDER20.asm

Error Addr  Code          Seq   Source statement

     B0BB   9D 1BA4      2849   XXB0BB STA $1BA4,X
     B0BE   CA           2850          DEX
     B0BF   10 FA        2851          BPL XXB0BB
                         2852   ;
     B0C1   A9 21        2853          LDA #$21      ;'!'
     B0C3   9D 1BE9      2854          STA $1BE9,X
     B0C6   A9 25        2855          LDA #$25      ;'%'
     B0C8   9D 1BFE      2856          STA $1BFE,X
     B0CB   60           2857          RTS
                         2858   ;********************************
                         2859   ; DELAY SOME TIME OVER AND OVER
                         2860   ;********************************
                         2861   ;XXB0CC
     B0CC   20 B0D3      2862   DELAY1 JSR DELAY
     B0CF   CA           2863          DEX
     B0D0   D0 FA        2864          BNE DELAY1
     B0D2   60           2865          RTS
                         2866   ;********************************
                         2867   ; DELAY SOME TIME
                         2868   ;********************************
                         2869   ;XXB0D3
     B0D3   48           2870   DELAY  PHA
     B0D4   8A           2871          TXA
     B0D5   48           2872          PHA
     B0D6   98           2873          TYA
     B0D7   48           2874          PHA
     B0D8   A2 0A        2875          LDX #$0A
     B0DA   A0 C8        2876   XXB0DA LDY #$C8
     B0DC   88           2877   XXB0DC DEY
     B0DD   D0 FD        2878          BNE XXB0DC
     B0DF   CA           2879          DEX
     B0E0   D0 F8        2880          BNE XXB0DA
     B0E2   68           2881          PLA
     B0E3   A8           2882          TAY
     B0E4   68           2883          PLA
     B0E5   AA           2884          TAX
     B0E6   68           2885          PLA
     B0E7   60           2886          RTS
                         2887   ;********************************
                         2888   ; CONVERT CURRENT SCORE TO SCREEN
                         2889   ; CODE AND DISPLAY
                         2890   ;********************************
     B0E8   A5 1C        2891   XXB0E8 LDA $1C
     B0EA   A6 1D        2892          LDX $1D
     B0EC   A0 00        2893          LDY #$00
     B0EE   84 2F        2894          STY $2F
     B0F0   20 B0FD      2895          JSR XXB0FD
     B0F3   A5 1E        2896          LDA $1E
     B0F5   A6 1F        2897          LDX $1F
     B0F7   A0 00        2898          LDY #$00
.MAIN.  Commodore 6502ASM V072882    Page 2-58
   JUPITERLANDER20.asm

Error Addr  Code          Seq   Source statement

     B0F9   84 2F        2899          STY $2F
     B0FB   A0 0A        2900          LDY #$0A
     B0FD   48           2901   XXB0FD PHA
     B0FE   8A           2902          TXA
     B0FF   20 B103      2903          JSR XXB103
     B102   68           2904          PLA
     B103   48           2905   XXB103 PHA
     B104   4A           2906          LSR A
     B105   4A           2907          LSR A
     B106   4A           2908          LSR A
     B107   4A           2909          LSR A
     B108   20 B10C      2910          JSR XXB10C
     B10B   68           2911          PLA
     B10C   29 0F        2912   XXB10C AND #$0F
     B10E   D0 04        2913          BNE XXB114
     B110   24 2F        2914          BIT $2F
     B112   10 08        2915          BPL XXB11C
     B114   38           2916   XXB114 SEC
     B115   66 2F        2917          ROR $2F
     B117   09 30        2918          ORA #$30      ;'0'
     B119   99 1DEA      2919          STA $1DEA,Y
     B11C   C8           2920   XXB11C INY
     B11D   60           2921          RTS
                         2922   ;********************************
                         2923   ;
                         2924   ;********************************
     B11E   A5 17        2925   XXB11E LDA $17
     B120   D0 16        2926          BNE XXB138
     B122   A5 25        2927          LDA $25
     B124   D0 12        2928          BNE XXB138
     B126   A9 01        2929          LDA #$01
     B128   85 25        2930          STA $25
     B12A   20 AADF      2931          JSR XXAADF
                         2932   ;
                         2933   ; DISPLAY FUEL STATUS
                         2934   ;
     B12D   A2 0A        2935          LDX #$0A
     B12F   BD B139      2936   XXB12F LDA XXB139,X
     B132   9D 1C34      2937          STA $1C34,X
     B135   CA           2938          DEX
     B136   10 F7        2939          BPL XXB12F
     B138   60           2940   XXB138 RTS
                         2941   ;********************************
                         2942   ;
                         2943   ;********************************
     B139   4F           2944   XXB139 .BYTE $4F ;'O'
     B13A   55           2945          .BYTE $55 ;'U'
     B13B   54           2946          .BYTE $54 ;'T'
     B13C   00           2947          .BYTE $00 ;' '
     B13D   4F           2948          .BYTE $4F ;'O'
.MAIN.  Commodore 6502ASM V072882    Page 2-59
   JUPITERLANDER20.asm

Error Addr  Code          Seq   Source statement

     B13E   46           2949          .BYTE $46 ;'F'
     B13F   00           2950          .BYTE $00 ;' '
                         2951   ;
     B140   46 55 45     2952          .BYTE $46,$55,$45,$4C ; FUEL
     B143   4C 
                         2953          ;.BYTE $55
                         2954          ;.BYTE $45
                         2955          ;.BYTE $4C
                         2956   ;********************************
                         2957   ;
                         2958   ;********************************
     B144   07           2959   ZZB144 .BYTE $07
     B145   08           2960          .BYTE $08
     B146   10           2961          .BYTE $10
     B147   3F           2962          .BYTE $3F
     B148   10           2963          .BYTE $10
     B149   08           2964          .BYTE $08
     B14A   0F           2965          .BYTE $0F
     B14B   3C           2966          .BYTE $3C
     B14C   E0           2967          .BYTE $E0
     B14D   10           2968          .BYTE $10
     B14E   08           2969          .BYTE $08
     B14F   FC           2970          .BYTE $FC
     B150   08           2971          .BYTE $08
     B151   10           2972          .BYTE $10
     B152   F0           2973          .BYTE $F0
     B153   3C           2974          .BYTE $3C
     B154   72           2975          .BYTE $72
     B155   71           2976          .BYTE $71
     B156   61           2977          .BYTE $61
     B157   42           2978          .BYTE $42
     B158   47           2979          .BYTE $47
     B159   40           2980          .BYTE $40
     B15A   40           2981          .BYTE $40
     B15B   E0           2982          .BYTE $E0
     B15C   4E           2983          .BYTE $4E
     B15D   8E           2984          .BYTE $8E
     B15E   86           2985          .BYTE $86
     B15F   42           2986          .BYTE $42
     B160   E2           2987          .BYTE $E2
     B161   02           2988          .BYTE $02
     B162   02           2989          .BYTE $02
     B163   07           2990          .BYTE $07
     B164   07           2991          .BYTE $07
     B165   08           2992          .BYTE $08
     B166   10           2993          .BYTE $10
     B167   3F           2994          .BYTE $3F
     B168   10           2995          .BYTE $10
     B169   08           2996          .BYTE $08
     B16A   0F           2997          .BYTE $0F
.MAIN.  Commodore 6502ASM V072882    Page 2-60
   JUPITERLANDER20.asm

Error Addr  Code          Seq   Source statement

     B16B   3C           2998          .BYTE $3C
     B16C   E0           2999          .BYTE $E0
     B16D   10           3000          .BYTE $10
     B16E   08           3001          .BYTE $08
     B16F   FC           3002          .BYTE $FC
     B170   08           3003          .BYTE $08
     B171   10           3004          .BYTE $10
     B172   F0           3005          .BYTE $F0
     B173   3C           3006          .BYTE $3C
     B174   72           3007          .BYTE $72
     B175   71           3008          .BYTE $71
     B176   61           3009          .BYTE $61
     B177   42           3010          .BYTE $42
     B178   47           3011          .BYTE $47
     B179   46           3012          .BYTE $46
     B17A   41           3013          .BYTE $41
     B17B   E0           3014          .BYTE $E0
     B17C   4E           3015          .BYTE $4E
     B17D   8E           3016          .BYTE $8E
     B17E   86           3017          .BYTE $86
     B17F   42           3018          .BYTE $42
     B180   E2           3019          .BYTE $E2
     B181   62           3020          .BYTE $62
     B182   82           3021          .BYTE $82
     B183   07           3022          .BYTE $07
     B184   07           3023          .BYTE $07
     B185   08           3024          .BYTE $08
     B186   10           3025          .BYTE $10
     B187   3F           3026          .BYTE $3F
     B188   10           3027          .BYTE $10
     B189   08           3028          .BYTE $08
     B18A   0F           3029          .BYTE $0F
     B18B   3C           3030          .BYTE $3C
     B18C   E0           3031          .BYTE $E0
     B18D   10           3032          .BYTE $10
     B18E   08           3033          .BYTE $08
     B18F   FC           3034          .BYTE $FC
     B190   08           3035          .BYTE $08
     B191   10           3036          .BYTE $10
     B192   F0           3037          .BYTE $F0
     B193   3C           3038          .BYTE $3C
     B194   72           3039          .BYTE $72
     B195   71           3040          .BYTE $71
     B196   61           3041          .BYTE $61
     B197   42           3042          .BYTE $42
     B198   47           3043          .BYTE $47
     B199   44           3044          .BYTE $44
     B19A   43           3045          .BYTE $43
     B19B   E0           3046          .BYTE $E0
     B19C   4E           3047          .BYTE $4E
.MAIN.  Commodore 6502ASM V072882    Page 2-61
   JUPITERLANDER20.asm

Error Addr  Code          Seq   Source statement

     B19D   8E           3048          .BYTE $8E
     B19E   86           3049          .BYTE $86
     B19F   42           3050          .BYTE $42
     B1A0   E2           3051          .BYTE $E2
     B1A1   22           3052          .BYTE $22
     B1A2   C2           3053          .BYTE $C2
     B1A3   07           3054          .BYTE $07
     B1A4   07           3055          .BYTE $07
     B1A5   08           3056          .BYTE $08
     B1A6   10           3057          .BYTE $10
     B1A7   3F           3058          .BYTE $3F
     B1A8   10           3059          .BYTE $10
     B1A9   08           3060          .BYTE $08
     B1AA   0F           3061          .BYTE $0F
     B1AB   3C           3062          .BYTE $3C
     B1AC   E0           3063          .BYTE $E0
     B1AD   10           3064          .BYTE $10
     B1AE   08           3065          .BYTE $08
     B1AF   FC           3066          .BYTE $FC
     B1B0   08           3067          .BYTE $08
     B1B1   10           3068          .BYTE $10
     B1B2   F0           3069          .BYTE $F0
     B1B3   3C           3070          .BYTE $3C
     B1B4   72           3071          .BYTE $72
     B1B5   71           3072          .BYTE $71
     B1B6   61           3073          .BYTE $61
     B1B7   42           3074          .BYTE $42
     B1B8   47           3075          .BYTE $47
     B1B9   44           3076          .BYTE $44
     B1BA   42           3077          .BYTE $42
     B1BB   E1           3078          .BYTE $E1
     B1BC   4E           3079          .BYTE $4E
     B1BD   8E           3080          .BYTE $8E
     B1BE   86           3081          .BYTE $86
     B1BF   42           3082          .BYTE $42
     B1C0   E2           3083          .BYTE $E2
     B1C1   22           3084          .BYTE $22
     B1C2   42           3085          .BYTE $42
     B1C3   87           3086          .BYTE $87
     B1C4   07           3087          .BYTE $07
     B1C5   08           3088          .BYTE $08
     B1C6   10           3089          .BYTE $10
     B1C7   3F           3090          .BYTE $3F
     B1C8   10           3091          .BYTE $10
     B1C9   E8           3092          .BYTE $E8
     B1CA   0F           3093          .BYTE $0F
     B1CB   3C           3094          .BYTE $3C
     B1CC   E0           3095          .BYTE $E0
     B1CD   10           3096          .BYTE $10
     B1CE   08           3097          .BYTE $08
.MAIN.  Commodore 6502ASM V072882    Page 2-62
   JUPITERLANDER20.asm

Error Addr  Code          Seq   Source statement

     B1CF   FC           3098          .BYTE $FC
     B1D0   08           3099          .BYTE $08
     B1D1   10           3100          .BYTE $10
     B1D2   F0           3101          .BYTE $F0
     B1D3   3C           3102          .BYTE $3C
     B1D4   72           3103          .BYTE $72
     B1D5   71           3104          .BYTE $71
     B1D6   61           3105          .BYTE $61
     B1D7   42           3106          .BYTE $42
     B1D8   47           3107          .BYTE $47
     B1D9   40           3108          .BYTE $40
     B1DA   40           3109          .BYTE $40
     B1DB   E0           3110          .BYTE $E0
     B1DC   4E           3111          .BYTE $4E
     B1DD   8E           3112          .BYTE $8E
     B1DE   86           3113          .BYTE $86
     B1DF   42           3114          .BYTE $42
     B1E0   E2           3115          .BYTE $E2
     B1E1   02           3116          .BYTE $02
     B1E2   02           3117          .BYTE $02
     B1E3   07           3118          .BYTE $07
     B1E4   07           3119          .BYTE $07
     B1E5   08           3120          .BYTE $08
     B1E6   10           3121          .BYTE $10
     B1E7   3F           3122          .BYTE $3F
     B1E8   10           3123          .BYTE $10
     B1E9   E8           3124          .BYTE $E8
     B1EA   0F           3125          .BYTE $0F
     B1EB   3C           3126          .BYTE $3C
     B1EC   E0           3127          .BYTE $E0
     B1ED   10           3128          .BYTE $10
     B1EE   08           3129          .BYTE $08
     B1EF   FC           3130          .BYTE $FC
     B1F0   08           3131          .BYTE $08
     B1F1   10           3132          .BYTE $10
     B1F2   F0           3133          .BYTE $F0
     B1F3   3C           3134          .BYTE $3C
     B1F4   72           3135          .BYTE $72
     B1F5   71           3136          .BYTE $71
     B1F6   61           3137          .BYTE $61
     B1F7   42           3138          .BYTE $42
     B1F8   47           3139          .BYTE $47
     B1F9   46           3140          .BYTE $46
     B1FA   41           3141          .BYTE $41
     B1FB   E0           3142          .BYTE $E0
     B1FC   4E           3143          .BYTE $4E
     B1FD   8E           3144          .BYTE $8E
     B1FE   86           3145          .BYTE $86
     B1FF   42           3146          .BYTE $42
     B200   E2           3147          .BYTE $E2
.MAIN.  Commodore 6502ASM V072882    Page 2-63
   JUPITERLANDER20.asm

Error Addr  Code          Seq   Source statement

     B201   62           3148          .BYTE $62
     B202   82           3149          .BYTE $82
     B203   07           3150          .BYTE $07
     B204   07           3151          .BYTE $07
     B205   08           3152          .BYTE $08
     B206   10           3153          .BYTE $10
     B207   3F           3154          .BYTE $3F
     B208   10           3155          .BYTE $10
     B209   E8           3156          .BYTE $E8
     B20A   0F           3157          .BYTE $0F
     B20B   3C           3158          .BYTE $3C
     B20C   E0           3159          .BYTE $E0
     B20D   10           3160          .BYTE $10
     B20E   08           3161          .BYTE $08
     B20F   FC           3162          .BYTE $FC
     B210   08           3163          .BYTE $08
     B211   10           3164          .BYTE $10
     B212   F0           3165          .BYTE $F0
     B213   3C           3166          .BYTE $3C
     B214   72           3167          .BYTE $72
     B215   71           3168          .BYTE $71
     B216   61           3169          .BYTE $61
     B217   42           3170          .BYTE $42
     B218   47           3171          .BYTE $47
     B219   44           3172          .BYTE $44
     B21A   43           3173          .BYTE $43
     B21B   E0           3174          .BYTE $E0
     B21C   4E           3175          .BYTE $4E
     B21D   8E           3176          .BYTE $8E
     B21E   86           3177          .BYTE $86
     B21F   42           3178          .BYTE $42
     B220   E2           3179          .BYTE $E2
     B221   22           3180          .BYTE $22
     B222   C2           3181          .BYTE $C2
     B223   07           3182          .BYTE $07
     B224   07           3183          .BYTE $07
     B225   08           3184          .BYTE $08
     B226   10           3185          .BYTE $10
     B227   3F           3186          .BYTE $3F
     B228   10           3187          .BYTE $10
     B229   E8           3188          .BYTE $E8
     B22A   0F           3189          .BYTE $0F
     B22B   3C           3190          .BYTE $3C
     B22C   E0           3191          .BYTE $E0
     B22D   10           3192          .BYTE $10
     B22E   08           3193          .BYTE $08
     B22F   FC           3194          .BYTE $FC
     B230   08           3195          .BYTE $08
     B231   10           3196          .BYTE $10
     B232   F0           3197          .BYTE $F0
.MAIN.  Commodore 6502ASM V072882    Page 2-64
   JUPITERLANDER20.asm

Error Addr  Code          Seq   Source statement

     B233   3C           3198          .BYTE $3C
     B234   72           3199          .BYTE $72
     B235   71           3200          .BYTE $71
     B236   61           3201          .BYTE $61
     B237   42           3202          .BYTE $42
     B238   47           3203          .BYTE $47
     B239   44           3204          .BYTE $44
     B23A   42           3205          .BYTE $42
     B23B   E1           3206          .BYTE $E1
     B23C   4E           3207          .BYTE $4E
     B23D   8E           3208          .BYTE $8E
     B23E   86           3209          .BYTE $86
     B23F   42           3210          .BYTE $42
     B240   E2           3211          .BYTE $E2
     B241   22           3212          .BYTE $22
     B242   42           3213          .BYTE $42
     B243   87           3214          .BYTE $87
     B244   07           3215          .BYTE $07
     B245   08           3216          .BYTE $08
     B246   10           3217          .BYTE $10
     B247   3F           3218          .BYTE $3F
     B248   10           3219          .BYTE $10
     B249   08           3220          .BYTE $08
     B24A   0F           3221          .BYTE $0F
     B24B   3C           3222          .BYTE $3C
     B24C   E0           3223          .BYTE $E0
     B24D   10           3224          .BYTE $10
     B24E   08           3225          .BYTE $08
     B24F   FC           3226          .BYTE $FC
     B250   08           3227          .BYTE $08
     B251   17           3228          .BYTE $17
     B252   F0           3229          .BYTE $F0
     B253   3C           3230          .BYTE $3C
     B254   72           3231          .BYTE $72
     B255   71           3232          .BYTE $71
     B256   61           3233          .BYTE $61
     B257   42           3234          .BYTE $42
     B258   47           3235          .BYTE $47
     B259   40           3236          .BYTE $40
     B25A   40           3237          .BYTE $40
     B25B   E0           3238          .BYTE $E0
     B25C   4E           3239          .BYTE $4E
     B25D   8E           3240          .BYTE $8E
     B25E   86           3241          .BYTE $86
     B25F   42           3242          .BYTE $42
     B260   E2           3243          .BYTE $E2
     B261   02           3244          .BYTE $02
     B262   02           3245          .BYTE $02
     B263   07           3246          .BYTE $07
     B264   07           3247          .BYTE $07
.MAIN.  Commodore 6502ASM V072882    Page 2-65
   JUPITERLANDER20.asm

Error Addr  Code          Seq   Source statement

     B265   08           3248          .BYTE $08
     B266   10           3249          .BYTE $10
     B267   3F           3250          .BYTE $3F
     B268   10           3251          .BYTE $10
     B269   08           3252          .BYTE $08
     B26A   0F           3253          .BYTE $0F
     B26B   3C           3254          .BYTE $3C
     B26C   E0           3255          .BYTE $E0
     B26D   10           3256          .BYTE $10
     B26E   08           3257          .BYTE $08
     B26F   FC           3258          .BYTE $FC
     B270   08           3259          .BYTE $08
     B271   17           3260          .BYTE $17
     B272   F0           3261          .BYTE $F0
     B273   3C           3262          .BYTE $3C
     B274   72           3263          .BYTE $72
     B275   71           3264          .BYTE $71
     B276   61           3265          .BYTE $61
     B277   42           3266          .BYTE $42
     B278   47           3267          .BYTE $47
     B279   46           3268          .BYTE $46
     B27A   41           3269          .BYTE $41
     B27B   E0           3270          .BYTE $E0
     B27C   4E           3271          .BYTE $4E
     B27D   8E           3272          .BYTE $8E
     B27E   86           3273          .BYTE $86
     B27F   42           3274          .BYTE $42
     B280   E2           3275          .BYTE $E2
     B281   62           3276          .BYTE $62
     B282   82           3277          .BYTE $82
     B283   07           3278          .BYTE $07
     B284   07           3279          .BYTE $07
     B285   08           3280          .BYTE $08
     B286   10           3281          .BYTE $10
     B287   3F           3282          .BYTE $3F
     B288   10           3283          .BYTE $10
     B289   08           3284          .BYTE $08
     B28A   0F           3285          .BYTE $0F
     B28B   3C           3286          .BYTE $3C
     B28C   E0           3287          .BYTE $E0
     B28D   10           3288          .BYTE $10
     B28E   08           3289          .BYTE $08
     B28F   FC           3290          .BYTE $FC
     B290   08           3291          .BYTE $08
     B291   17           3292          .BYTE $17
     B292   F0           3293          .BYTE $F0
     B293   3C           3294          .BYTE $3C
     B294   72           3295          .BYTE $72
     B295   71           3296          .BYTE $71
     B296   61           3297          .BYTE $61
.MAIN.  Commodore 6502ASM V072882    Page 2-66
   JUPITERLANDER20.asm

Error Addr  Code          Seq   Source statement

     B297   42           3298          .BYTE $42
     B298   47           3299          .BYTE $47
     B299   44           3300          .BYTE $44
     B29A   43           3301          .BYTE $43
     B29B   E0           3302          .BYTE $E0
     B29C   4E           3303          .BYTE $4E
     B29D   8E           3304          .BYTE $8E
     B29E   86           3305          .BYTE $86
     B29F   42           3306          .BYTE $42
     B2A0   E2           3307          .BYTE $E2
     B2A1   22           3308          .BYTE $22
     B2A2   C2           3309          .BYTE $C2
     B2A3   07           3310          .BYTE $07
     B2A4   07           3311          .BYTE $07
     B2A5   08           3312          .BYTE $08
     B2A6   10           3313          .BYTE $10
     B2A7   3F           3314          .BYTE $3F
     B2A8   10           3315          .BYTE $10
     B2A9   08           3316          .BYTE $08
     B2AA   0F           3317          .BYTE $0F
     B2AB   3C           3318          .BYTE $3C
     B2AC   E0           3319          .BYTE $E0
     B2AD   10           3320          .BYTE $10
     B2AE   08           3321          .BYTE $08
     B2AF   FC           3322          .BYTE $FC
     B2B0   08           3323          .BYTE $08
     B2B1   17           3324          .BYTE $17
     B2B2   F0           3325          .BYTE $F0
     B2B3   3C           3326          .BYTE $3C
     B2B4   72           3327          .BYTE $72
     B2B5   71           3328          .BYTE $71
     B2B6   61           3329          .BYTE $61
     B2B7   42           3330          .BYTE $42
     B2B8   47           3331          .BYTE $47
     B2B9   44           3332          .BYTE $44
     B2BA   42           3333          .BYTE $42
     B2BB   E1           3334          .BYTE $E1
     B2BC   4E           3335          .BYTE $4E
     B2BD   8E           3336          .BYTE $8E
     B2BE   86           3337          .BYTE $86
     B2BF   42           3338          .BYTE $42
     B2C0   E2           3339          .BYTE $E2
     B2C1   22           3340          .BYTE $22
     B2C2   42           3341          .BYTE $42
     B2C3   87           3342          .BYTE $87
     B2C4   00           3343          .BYTE $00
     B2C5   00           3344          .BYTE $00
     B2C6   00           3345          .BYTE $00
     B2C7   00           3346          .BYTE $00
     B2C8   01           3347          .BYTE $01
.MAIN.  Commodore 6502ASM V072882    Page 2-67
   JUPITERLANDER20.asm

Error Addr  Code          Seq   Source statement

     B2C9   03           3348          .BYTE $03
     B2CA   07           3349          .BYTE $07
     B2CB   07           3350          .BYTE $07
     B2CC   1F           3351          .BYTE $1F
     B2CD   3F           3352          .BYTE $3F
     B2CE   60           3353          .BYTE $60
     B2CF   C0           3354          .BYTE $C0
     B2D0   80           3355          .BYTE $80
     B2D1   00           3356          .BYTE $00
     B2D2   FF           3357          .BYTE $FF
     B2D3   FF           3358          .BYTE $FF
     B2D4   F8           3359          .BYTE $F8
     B2D5   FC           3360          .BYTE $FC
     B2D6   06           3361          .BYTE $06
     B2D7   03           3362          .BYTE $03
     B2D8   01           3363          .BYTE $01
     B2D9   00           3364          .BYTE $00
     B2DA   FF           3365          .BYTE $FF
     B2DB   FF           3366          .BYTE $FF
     B2DC   00           3367          .BYTE $00
     B2DD   00           3368          .BYTE $00
     B2DE   00           3369          .BYTE $00
     B2DF   00           3370          .BYTE $00
     B2E0   80           3371          .BYTE $80
     B2E1   C0           3372          .BYTE $C0
     B2E2   E0           3373          .BYTE $E0
     B2E3   E0           3374          .BYTE $E0
     B2E4   03           3375          .BYTE $03
     B2E5   01           3376          .BYTE $01
     B2E6   00           3377          .BYTE $00
     B2E7   00           3378          .BYTE $00
     B2E8   00           3379          .BYTE $00
     B2E9   01           3380          .BYTE $01
     B2EA   07           3381          .BYTE $07
     B2EB   0F           3382          .BYTE $0F
     B2EC   00           3383          .BYTE $00
     B2ED   80           3384          .BYTE $80
     B2EE   C0           3385          .BYTE $C0
     B2EF   60           3386          .BYTE $60
     B2F0   70           3387          .BYTE $70
     B2F1   FF           3388          .BYTE $FF
     B2F2   FF           3389          .BYTE $FF
     B2F3   F8           3390          .BYTE $F8
     B2F4   00           3391          .BYTE $00
     B2F5   01           3392          .BYTE $01
     B2F6   03           3393          .BYTE $03
     B2F7   06           3394          .BYTE $06
     B2F8   0E           3395          .BYTE $0E
     B2F9   FF           3396          .BYTE $FF
     B2FA   FF           3397          .BYTE $FF
.MAIN.  Commodore 6502ASM V072882    Page 2-68
   JUPITERLANDER20.asm

Error Addr  Code          Seq   Source statement

     B2FB   1F           3398          .BYTE $1F
     B2FC   C0           3399          .BYTE $C0
     B2FD   80           3400          .BYTE $80
     B2FE   00           3401          .BYTE $00
     B2FF   00           3402          .BYTE $00
     B300   00           3403          .BYTE $00
     B301   80           3404          .BYTE $80
     B302   E0           3405          .BYTE $E0
     B303   F0           3406          .BYTE $F0
     B304   0F           3407          .BYTE $0F
     B305   0E           3408          .BYTE $0E
     B306   1E           3409          .BYTE $1E
     B307   1C           3410          .BYTE $1C
     B308   1C           3411          .BYTE $1C
     B309   1C           3412          .BYTE $1C
     B30A   18           3413          .BYTE $18
     B30B   18           3414          .BYTE $18
     B30C   18           3415          .BYTE $18
     B30D   0C           3416          .BYTE $0C
     B30E   06           3417          .BYTE $06
     B30F   03           3418          .BYTE $03
     B310   07           3419          .BYTE $07
     B311   0C           3420          .BYTE $0C
     B312   18           3421          .BYTE $18
     B313   30           3422          .BYTE $30
     B314   18           3423          .BYTE $18
     B315   30           3424          .BYTE $30
     B316   60           3425          .BYTE $60
     B317   C0           3426          .BYTE $C0
     B318   E0           3427          .BYTE $E0
     B319   30           3428          .BYTE $30
     B31A   18           3429          .BYTE $18
     B31B   0C           3430          .BYTE $0C
     B31C   F0           3431          .BYTE $F0
     B31D   70           3432          .BYTE $70
     B31E   78           3433          .BYTE $78
     B31F   38           3434          .BYTE $38
     B320   38           3435          .BYTE $38
     B321   38           3436          .BYTE $38
     B322   18           3437          .BYTE $18
     B323   18           3438          .BYTE $18
     B324   18           3439          .BYTE $18
     B325   18           3440          .BYTE $18
     B326   18           3441          .BYTE $18
     B327   18           3442          .BYTE $18
     B328   18           3443          .BYTE $18
     B329   18           3444          .BYTE $18
     B32A   7E           3445          .BYTE $7E
     B32B   E7           3446          .BYTE $E7
     B32C   60           3447          .BYTE $60
.MAIN.  Commodore 6502ASM V072882    Page 2-69
   JUPITERLANDER20.asm

Error Addr  Code          Seq   Source statement

     B32D   7F           3448          .BYTE $7F
     B32E   00           3449          .BYTE $00
     B32F   00           3450          .BYTE $00
     B330   00           3451          .BYTE $00
     B331   00           3452          .BYTE $00
     B332   00           3453          .BYTE $00
     B333   00           3454          .BYTE $00
     B334   06           3455          .BYTE $06
     B335   FE           3456          .BYTE $FE
     B336   00           3457          .BYTE $00
     B337   00           3458          .BYTE $00
     B338   00           3459          .BYTE $00
     B339   00           3460          .BYTE $00
     B33A   00           3461          .BYTE $00
     B33B   00           3462          .BYTE $00
     B33C   18           3463          .BYTE $18
     B33D   18           3464          .BYTE $18
     B33E   18           3465          .BYTE $18
     B33F   18           3466          .BYTE $18
     B340   18           3467          .BYTE $18
     B341   18           3468          .BYTE $18
     B342   7E           3469          .BYTE $7E
     B343   E7           3470          .BYTE $E7
                         3471   ;********************************
                         3472   ;
                         3473   ;********************************
     B344   00           3474   ZZB8C4 .BYTE $00
     B345   00           3475          .BYTE $00
     B346   00           3476          .BYTE $00
     B347   00           3477          .BYTE $00
     B348   01           3478          .BYTE $01
     B349   03           3479          .BYTE $03
     B34A   07           3480          .BYTE $07
     B34B   07           3481          .BYTE $07
     B34C   1F           3482          .BYTE $1F
     B34D   3F           3483          .BYTE $3F
     B34E   60           3484          .BYTE $60
     B34F   C0           3485          .BYTE $C0
     B350   80           3486          .BYTE $80
     B351   00           3487          .BYTE $00
     B352   FF           3488          .BYTE $FF
     B353   FF           3489          .BYTE $FF
     B354   F8           3490          .BYTE $F8
     B355   FC           3491          .BYTE $FC
     B356   06           3492          .BYTE $06
     B357   03           3493          .BYTE $03
     B358   01           3494          .BYTE $01
     B359   00           3495          .BYTE $00
     B35A   FF           3496          .BYTE $FF
     B35B   FF           3497          .BYTE $FF
.MAIN.  Commodore 6502ASM V072882    Page 2-70
   JUPITERLANDER20.asm

Error Addr  Code          Seq   Source statement

     B35C   00           3498          .BYTE $00
     B35D   00           3499          .BYTE $00
     B35E   00           3500          .BYTE $00
     B35F   00           3501          .BYTE $00
     B360   80           3502          .BYTE $80
     B361   C0           3503          .BYTE $C0
     B362   E0           3504          .BYTE $E0
     B363   E0           3505          .BYTE $E0
     B364   03           3506          .BYTE $03
     B365   01           3507          .BYTE $01
     B366   00           3508          .BYTE $00
     B367   00           3509          .BYTE $00
     B368   00           3510          .BYTE $00
     B369   01           3511          .BYTE $01
     B36A   07           3512          .BYTE $07
     B36B   0F           3513          .BYTE $0F
     B36C   00           3514          .BYTE $00
     B36D   80           3515          .BYTE $80
     B36E   C0           3516          .BYTE $C0
     B36F   60           3517          .BYTE $60
     B370   70           3518          .BYTE $70
     B371   FF           3519          .BYTE $FF
     B372   FF           3520          .BYTE $FF
     B373   F8           3521          .BYTE $F8
     B374   00           3522          .BYTE $00
     B375   01           3523          .BYTE $01
     B376   03           3524          .BYTE $03
     B377   06           3525          .BYTE $06
     B378   0E           3526          .BYTE $0E
     B379   FF           3527          .BYTE $FF
     B37A   FF           3528          .BYTE $FF
     B37B   1F           3529          .BYTE $1F
     B37C   C0           3530          .BYTE $C0
     B37D   80           3531          .BYTE $80
     B37E   00           3532          .BYTE $00
     B37F   00           3533          .BYTE $00
     B380   00           3534          .BYTE $00
     B381   80           3535          .BYTE $80
     B382   E0           3536          .BYTE $E0
     B383   F0           3537          .BYTE $F0
     B384   0F           3538          .BYTE $0F
     B385   0E           3539          .BYTE $0E
     B386   1E           3540          .BYTE $1E
     B387   1C           3541          .BYTE $1C
     B388   1C           3542          .BYTE $1C
     B389   1C           3543          .BYTE $1C
     B38A   18           3544          .BYTE $18
     B38B   18           3545          .BYTE $18
     B38C   18           3546          .BYTE $18
     B38D   0C           3547          .BYTE $0C
.MAIN.  Commodore 6502ASM V072882    Page 2-71
   JUPITERLANDER20.asm

Error Addr  Code          Seq   Source statement

     B38E   06           3548          .BYTE $06
     B38F   03           3549          .BYTE $03
     B390   07           3550          .BYTE $07
     B391   0C           3551          .BYTE $0C
     B392   18           3552          .BYTE $18
     B393   30           3553          .BYTE $30
     B394   18           3554          .BYTE $18
     B395   30           3555          .BYTE $30
     B396   60           3556          .BYTE $60
     B397   C0           3557          .BYTE $C0
     B398   E0           3558          .BYTE $E0
     B399   30           3559          .BYTE $30
     B39A   18           3560          .BYTE $18
     B39B   0C           3561          .BYTE $0C
     B39C   F0           3562          .BYTE $F0
     B39D   70           3563          .BYTE $70
     B39E   78           3564          .BYTE $78
     B39F   38           3565          .BYTE $38
     B3A0   38           3566          .BYTE $38
     B3A1   38           3567          .BYTE $38
     B3A2   18           3568          .BYTE $18
     B3A3   18           3569          .BYTE $18
     B3A4   18           3570          .BYTE $18
     B3A5   18           3571          .BYTE $18
     B3A6   18           3572          .BYTE $18
     B3A7   18           3573          .BYTE $18
     B3A8   18           3574          .BYTE $18
     B3A9   18           3575          .BYTE $18
     B3AA   7E           3576          .BYTE $7E
     B3AB   E7           3577          .BYTE $E7
     B3AC   60           3578          .BYTE $60
     B3AD   7F           3579          .BYTE $7F
     B3AE   3C           3580          .BYTE $3C
     B3AF   03           3581          .BYTE $03
     B3B0   00           3582          .BYTE $00
     B3B1   00           3583          .BYTE $00
     B3B2   00           3584          .BYTE $00
     B3B3   00           3585          .BYTE $00
     B3B4   06           3586          .BYTE $06
     B3B5   FE           3587          .BYTE $FE
     B3B6   3C           3588          .BYTE $3C
     B3B7   C0           3589          .BYTE $C0
     B3B8   00           3590          .BYTE $00
     B3B9   00           3591          .BYTE $00
     B3BA   00           3592          .BYTE $00
     B3BB   00           3593          .BYTE $00
     B3BC   18           3594          .BYTE $18
     B3BD   18           3595          .BYTE $18
     B3BE   18           3596          .BYTE $18
     B3BF   18           3597          .BYTE $18
.MAIN.  Commodore 6502ASM V072882    Page 2-72
   JUPITERLANDER20.asm

Error Addr  Code          Seq   Source statement

     B3C0   18           3598          .BYTE $18
     B3C1   18           3599          .BYTE $18
     B3C2   7E           3600          .BYTE $7E
     B3C3   E7           3601          .BYTE $E7
     B3C4   00           3602          .BYTE $00
     B3C5   00           3603          .BYTE $00
     B3C6   00           3604          .BYTE $00
     B3C7   00           3605          .BYTE $00
     B3C8   01           3606          .BYTE $01
     B3C9   03           3607          .BYTE $03
     B3CA   07           3608          .BYTE $07
     B3CB   07           3609          .BYTE $07
     B3CC   1F           3610          .BYTE $1F
     B3CD   3F           3611          .BYTE $3F
     B3CE   60           3612          .BYTE $60
     B3CF   C0           3613          .BYTE $C0
     B3D0   80           3614          .BYTE $80
     B3D1   00           3615          .BYTE $00
     B3D2   FF           3616          .BYTE $FF
     B3D3   FF           3617          .BYTE $FF
     B3D4   F8           3618          .BYTE $F8
     B3D5   FC           3619          .BYTE $FC
     B3D6   06           3620          .BYTE $06
     B3D7   03           3621          .BYTE $03
     B3D8   01           3622          .BYTE $01
     B3D9   00           3623          .BYTE $00
     B3DA   FF           3624          .BYTE $FF
     B3DB   FF           3625          .BYTE $FF
     B3DC   00           3626          .BYTE $00
     B3DD   00           3627          .BYTE $00
     B3DE   00           3628          .BYTE $00
     B3DF   00           3629          .BYTE $00
     B3E0   80           3630          .BYTE $80
     B3E1   C0           3631          .BYTE $C0
     B3E2   E0           3632          .BYTE $E0
     B3E3   E0           3633          .BYTE $E0
     B3E4   03           3634          .BYTE $03
     B3E5   01           3635          .BYTE $01
     B3E6   00           3636          .BYTE $00
     B3E7   00           3637          .BYTE $00
     B3E8   00           3638          .BYTE $00
     B3E9   01           3639          .BYTE $01
     B3EA   07           3640          .BYTE $07
     B3EB   0F           3641          .BYTE $0F
     B3EC   00           3642          .BYTE $00
     B3ED   80           3643          .BYTE $80
     B3EE   C0           3644          .BYTE $C0
     B3EF   60           3645          .BYTE $60
     B3F0   70           3646          .BYTE $70
     B3F1   FF           3647          .BYTE $FF
.MAIN.  Commodore 6502ASM V072882    Page 2-73
   JUPITERLANDER20.asm

Error Addr  Code          Seq   Source statement

     B3F2   FF           3648          .BYTE $FF
     B3F3   F8           3649          .BYTE $F8
     B3F4   00           3650          .BYTE $00
     B3F5   01           3651          .BYTE $01
     B3F6   03           3652          .BYTE $03
     B3F7   06           3653          .BYTE $06
     B3F8   0E           3654          .BYTE $0E
     B3F9   FF           3655          .BYTE $FF
     B3FA   FF           3656          .BYTE $FF
     B3FB   1F           3657          .BYTE $1F
     B3FC   C0           3658          .BYTE $C0
     B3FD   80           3659          .BYTE $80
     B3FE   00           3660          .BYTE $00
     B3FF   00           3661          .BYTE $00
     B400   00           3662          .BYTE $00
     B401   80           3663          .BYTE $80
     B402   E0           3664          .BYTE $E0
     B403   F0           3665          .BYTE $F0
     B404   0F           3666          .BYTE $0F
     B405   0E           3667          .BYTE $0E
     B406   1E           3668          .BYTE $1E
     B407   1C           3669          .BYTE $1C
     B408   1C           3670          .BYTE $1C
     B409   1C           3671          .BYTE $1C
     B40A   18           3672          .BYTE $18
     B40B   18           3673          .BYTE $18
     B40C   18           3674          .BYTE $18
     B40D   0C           3675          .BYTE $0C
     B40E   06           3676          .BYTE $06
     B40F   03           3677          .BYTE $03
     B410   07           3678          .BYTE $07
     B411   0C           3679          .BYTE $0C
     B412   18           3680          .BYTE $18
     B413   30           3681          .BYTE $30
     B414   18           3682          .BYTE $18
     B415   30           3683          .BYTE $30
     B416   60           3684          .BYTE $60
     B417   C0           3685          .BYTE $C0
     B418   E0           3686          .BYTE $E0
     B419   30           3687          .BYTE $30
     B41A   18           3688          .BYTE $18
     B41B   0C           3689          .BYTE $0C
     B41C   F0           3690          .BYTE $F0
     B41D   70           3691          .BYTE $70
     B41E   78           3692          .BYTE $78
     B41F   38           3693          .BYTE $38
     B420   38           3694          .BYTE $38
     B421   38           3695          .BYTE $38
     B422   18           3696          .BYTE $18
     B423   18           3697          .BYTE $18
.MAIN.  Commodore 6502ASM V072882    Page 2-74
   JUPITERLANDER20.asm

Error Addr  Code          Seq   Source statement

     B424   18           3698          .BYTE $18
     B425   18           3699          .BYTE $18
     B426   18           3700          .BYTE $18
     B427   18           3701          .BYTE $18
     B428   18           3702          .BYTE $18
     B429   18           3703          .BYTE $18
     B42A   7E           3704          .BYTE $7E
     B42B   E7           3705          .BYTE $E7
     B42C   60           3706          .BYTE $60
     B42D   7F           3707          .BYTE $7F
     B42E   30           3708          .BYTE $30
     B42F   0C           3709          .BYTE $0C
     B430   02           3710          .BYTE $02
     B431   01           3711          .BYTE $01
     B432   00           3712          .BYTE $00
     B433   00           3713          .BYTE $00
     B434   06           3714          .BYTE $06
     B435   FE           3715          .BYTE $FE
     B436   0C           3716          .BYTE $0C
     B437   30           3717          .BYTE $30
     B438   40           3718          .BYTE $40
     B439   80           3719          .BYTE $80
     B43A   00           3720          .BYTE $00
     B43B   00           3721          .BYTE $00
     B43C   18           3722          .BYTE $18
     B43D   18           3723          .BYTE $18
     B43E   18           3724          .BYTE $18
     B43F   18           3725          .BYTE $18
     B440   18           3726          .BYTE $18
     B441   18           3727          .BYTE $18
     B442   7E           3728          .BYTE $7E
     B443   E7           3729          .BYTE $E7
     B444   00           3730          .BYTE $00
     B445   00           3731          .BYTE $00
     B446   00           3732          .BYTE $00
     B447   00           3733          .BYTE $00
     B448   01           3734          .BYTE $01
     B449   03           3735          .BYTE $03
     B44A   07           3736          .BYTE $07
     B44B   07           3737          .BYTE $07
     B44C   1F           3738          .BYTE $1F
     B44D   3F           3739          .BYTE $3F
     B44E   60           3740          .BYTE $60
     B44F   C0           3741          .BYTE $C0
     B450   80           3742          .BYTE $80
     B451   00           3743          .BYTE $00
     B452   FF           3744          .BYTE $FF
     B453   FF           3745          .BYTE $FF
     B454   F8           3746          .BYTE $F8
     B455   FC           3747          .BYTE $FC
.MAIN.  Commodore 6502ASM V072882    Page 2-75
   JUPITERLANDER20.asm

Error Addr  Code          Seq   Source statement

     B456   06           3748          .BYTE $06
     B457   03           3749          .BYTE $03
     B458   01           3750          .BYTE $01
     B459   00           3751          .BYTE $00
     B45A   FF           3752          .BYTE $FF
     B45B   FF           3753          .BYTE $FF
     B45C   00           3754          .BYTE $00
     B45D   00           3755          .BYTE $00
     B45E   00           3756          .BYTE $00
     B45F   00           3757          .BYTE $00
     B460   80           3758          .BYTE $80
     B461   C0           3759          .BYTE $C0
     B462   E0           3760          .BYTE $E0
     B463   E0           3761          .BYTE $E0
     B464   03           3762          .BYTE $03
     B465   01           3763          .BYTE $01
     B466   00           3764          .BYTE $00
     B467   00           3765          .BYTE $00
     B468   00           3766          .BYTE $00
     B469   01           3767          .BYTE $01
     B46A   07           3768          .BYTE $07
     B46B   0F           3769          .BYTE $0F
     B46C   00           3770          .BYTE $00
     B46D   80           3771          .BYTE $80
     B46E   C0           3772          .BYTE $C0
     B46F   60           3773          .BYTE $60
     B470   70           3774          .BYTE $70
     B471   FF           3775          .BYTE $FF
     B472   FF           3776          .BYTE $FF
     B473   F8           3777          .BYTE $F8
     B474   00           3778          .BYTE $00
     B475   01           3779          .BYTE $01
     B476   03           3780          .BYTE $03
     B477   06           3781          .BYTE $06
     B478   0E           3782          .BYTE $0E
     B479   FF           3783          .BYTE $FF
     B47A   FF           3784          .BYTE $FF
     B47B   1F           3785          .BYTE $1F
     B47C   C0           3786          .BYTE $C0
     B47D   80           3787          .BYTE $80
     B47E   00           3788          .BYTE $00
     B47F   00           3789          .BYTE $00
     B480   00           3790          .BYTE $00
     B481   80           3791          .BYTE $80
     B482   E0           3792          .BYTE $E0
     B483   F0           3793          .BYTE $F0
     B484   0F           3794          .BYTE $0F
     B485   0E           3795          .BYTE $0E
     B486   1E           3796          .BYTE $1E
     B487   1C           3797          .BYTE $1C
.MAIN.  Commodore 6502ASM V072882    Page 2-76
   JUPITERLANDER20.asm

Error Addr  Code          Seq   Source statement

     B488   1C           3798          .BYTE $1C
     B489   1C           3799          .BYTE $1C
     B48A   18           3800          .BYTE $18
     B48B   18           3801          .BYTE $18
     B48C   18           3802          .BYTE $18
     B48D   0C           3803          .BYTE $0C
     B48E   06           3804          .BYTE $06
     B48F   03           3805          .BYTE $03
     B490   07           3806          .BYTE $07
     B491   0C           3807          .BYTE $0C
     B492   18           3808          .BYTE $18
     B493   30           3809          .BYTE $30
     B494   18           3810          .BYTE $18
     B495   30           3811          .BYTE $30
     B496   60           3812          .BYTE $60
     B497   C0           3813          .BYTE $C0
     B498   E0           3814          .BYTE $E0
     B499   30           3815          .BYTE $30
     B49A   18           3816          .BYTE $18
     B49B   0C           3817          .BYTE $0C
     B49C   F0           3818          .BYTE $F0
     B49D   70           3819          .BYTE $70
     B49E   78           3820          .BYTE $78
     B49F   38           3821          .BYTE $38
     B4A0   38           3822          .BYTE $38
     B4A1   38           3823          .BYTE $38
     B4A2   18           3824          .BYTE $18
     B4A3   18           3825          .BYTE $18
     B4A4   18           3826          .BYTE $18
     B4A5   18           3827          .BYTE $18
     B4A6   18           3828          .BYTE $18
     B4A7   18           3829          .BYTE $18
     B4A8   18           3830          .BYTE $18
     B4A9   18           3831          .BYTE $18
     B4AA   7E           3832          .BYTE $7E
     B4AB   E7           3833          .BYTE $E7
     B4AC   60           3834          .BYTE $60
     B4AD   7F           3835          .BYTE $7F
     B4AE   20           3836          .BYTE $20
     B4AF   10           3837          .BYTE $10
     B4B0   08           3838          .BYTE $08
     B4B1   04           3839          .BYTE $04
     B4B2   02           3840          .BYTE $02
     B4B3   01           3841          .BYTE $01
     B4B4   06           3842          .BYTE $06
     B4B5   FE           3843          .BYTE $FE
     B4B6   04           3844          .BYTE $04
     B4B7   08           3845          .BYTE $08
     B4B8   10           3846          .BYTE $10
     B4B9   20           3847          .BYTE $20
.MAIN.  Commodore 6502ASM V072882    Page 2-77
   JUPITERLANDER20.asm

Error Addr  Code          Seq   Source statement

     B4BA   40           3848          .BYTE $40
     B4BB   80           3849          .BYTE $80
     B4BC   18           3850          .BYTE $18
     B4BD   18           3851          .BYTE $18
     B4BE   18           3852          .BYTE $18
     B4BF   18           3853          .BYTE $18
     B4C0   18           3854          .BYTE $18
     B4C1   18           3855          .BYTE $18
     B4C2   7E           3856          .BYTE $7E
     B4C3   E7           3857          .BYTE $E7
     B4C4   00           3858          .BYTE $00
     B4C5   00           3859          .BYTE $00
     B4C6   00           3860          .BYTE $00
     B4C7   00           3861          .BYTE $00
     B4C8   01           3862          .BYTE $01
     B4C9   03           3863          .BYTE $03
     B4CA   07           3864          .BYTE $07
     B4CB   07           3865          .BYTE $07
     B4CC   1F           3866          .BYTE $1F
     B4CD   3F           3867          .BYTE $3F
     B4CE   60           3868          .BYTE $60
     B4CF   C0           3869          .BYTE $C0
     B4D0   80           3870          .BYTE $80
     B4D1   00           3871          .BYTE $00
     B4D2   FF           3872          .BYTE $FF
     B4D3   FF           3873          .BYTE $FF
     B4D4   F8           3874          .BYTE $F8
     B4D5   FC           3875          .BYTE $FC
     B4D6   06           3876          .BYTE $06
     B4D7   03           3877          .BYTE $03
     B4D8   01           3878          .BYTE $01
     B4D9   00           3879          .BYTE $00
     B4DA   FF           3880          .BYTE $FF
     B4DB   FF           3881          .BYTE $FF
     B4DC   00           3882          .BYTE $00
     B4DD   00           3883          .BYTE $00
     B4DE   00           3884          .BYTE $00
     B4DF   00           3885          .BYTE $00
     B4E0   80           3886          .BYTE $80
     B4E1   C0           3887          .BYTE $C0
     B4E2   E0           3888          .BYTE $E0
     B4E3   E0           3889          .BYTE $E0
     B4E4   03           3890          .BYTE $03
     B4E5   01           3891          .BYTE $01
     B4E6   1C           3892          .BYTE $1C
     B4E7   E0           3893          .BYTE $E0
     B4E8   1C           3894          .BYTE $1C
     B4E9   01           3895          .BYTE $01
     B4EA   07           3896          .BYTE $07
     B4EB   0F           3897          .BYTE $0F
.MAIN.  Commodore 6502ASM V072882    Page 2-78
   JUPITERLANDER20.asm

Error Addr  Code          Seq   Source statement

     B4EC   00           3898          .BYTE $00
     B4ED   80           3899          .BYTE $80
     B4EE   C0           3900          .BYTE $C0
     B4EF   60           3901          .BYTE $60
     B4F0   70           3902          .BYTE $70
     B4F1   FF           3903          .BYTE $FF
     B4F2   FF           3904          .BYTE $FF
     B4F3   F8           3905          .BYTE $F8
     B4F4   00           3906          .BYTE $00
     B4F5   01           3907          .BYTE $01
     B4F6   03           3908          .BYTE $03
     B4F7   06           3909          .BYTE $06
     B4F8   0E           3910          .BYTE $0E
     B4F9   FF           3911          .BYTE $FF
     B4FA   FF           3912          .BYTE $FF
     B4FB   1F           3913          .BYTE $1F
     B4FC   C0           3914          .BYTE $C0
     B4FD   80           3915          .BYTE $80
     B4FE   00           3916          .BYTE $00
     B4FF   00           3917          .BYTE $00
     B500   00           3918          .BYTE $00
     B501   80           3919          .BYTE $80
     B502   E0           3920          .BYTE $E0
     B503   F0           3921          .BYTE $F0
     B504   0F           3922          .BYTE $0F
     B505   0E           3923          .BYTE $0E
     B506   1E           3924          .BYTE $1E
     B507   1C           3925          .BYTE $1C
     B508   1C           3926          .BYTE $1C
     B509   1C           3927          .BYTE $1C
     B50A   18           3928          .BYTE $18
     B50B   18           3929          .BYTE $18
     B50C   18           3930          .BYTE $18
     B50D   0C           3931          .BYTE $0C
     B50E   06           3932          .BYTE $06
     B50F   03           3933          .BYTE $03
     B510   07           3934          .BYTE $07
     B511   0C           3935          .BYTE $0C
     B512   18           3936          .BYTE $18
     B513   30           3937          .BYTE $30
     B514   18           3938          .BYTE $18
     B515   30           3939          .BYTE $30
     B516   60           3940          .BYTE $60
     B517   C0           3941          .BYTE $C0
     B518   E0           3942          .BYTE $E0
     B519   30           3943          .BYTE $30
     B51A   18           3944          .BYTE $18
     B51B   0C           3945          .BYTE $0C
     B51C   F0           3946          .BYTE $F0
     B51D   70           3947          .BYTE $70
.MAIN.  Commodore 6502ASM V072882    Page 2-79
   JUPITERLANDER20.asm

Error Addr  Code          Seq   Source statement

     B51E   78           3948          .BYTE $78
     B51F   38           3949          .BYTE $38
     B520   38           3950          .BYTE $38
     B521   38           3951          .BYTE $38
     B522   18           3952          .BYTE $18
     B523   18           3953          .BYTE $18
     B524   18           3954          .BYTE $18
     B525   18           3955          .BYTE $18
     B526   18           3956          .BYTE $18
     B527   18           3957          .BYTE $18
     B528   18           3958          .BYTE $18
     B529   18           3959          .BYTE $18
     B52A   7E           3960          .BYTE $7E
     B52B   E7           3961          .BYTE $E7
     B52C   60           3962          .BYTE $60
     B52D   7F           3963          .BYTE $7F
     B52E   00           3964          .BYTE $00
     B52F   00           3965          .BYTE $00
     B530   00           3966          .BYTE $00
     B531   00           3967          .BYTE $00
     B532   00           3968          .BYTE $00
     B533   00           3969          .BYTE $00
     B534   06           3970          .BYTE $06
     B535   FE           3971          .BYTE $FE
     B536   00           3972          .BYTE $00
     B537   00           3973          .BYTE $00
     B538   00           3974          .BYTE $00
     B539   00           3975          .BYTE $00
     B53A   00           3976          .BYTE $00
     B53B   00           3977          .BYTE $00
     B53C   18           3978          .BYTE $18
     B53D   18           3979          .BYTE $18
     B53E   18           3980          .BYTE $18
     B53F   18           3981          .BYTE $18
     B540   18           3982          .BYTE $18
     B541   18           3983          .BYTE $18
     B542   7E           3984          .BYTE $7E
     B543   E7           3985          .BYTE $E7
     B544   00           3986          .BYTE $00
     B545   00           3987          .BYTE $00
     B546   00           3988          .BYTE $00
     B547   00           3989          .BYTE $00
     B548   01           3990          .BYTE $01
     B549   03           3991          .BYTE $03
     B54A   07           3992          .BYTE $07
     B54B   07           3993          .BYTE $07
     B54C   1F           3994          .BYTE $1F
     B54D   3F           3995          .BYTE $3F
     B54E   60           3996          .BYTE $60
     B54F   C0           3997          .BYTE $C0
.MAIN.  Commodore 6502ASM V072882    Page 2-80
   JUPITERLANDER20.asm

Error Addr  Code          Seq   Source statement

     B550   80           3998          .BYTE $80
     B551   00           3999          .BYTE $00
     B552   FF           4000          .BYTE $FF
     B553   FF           4001          .BYTE $FF
     B554   F8           4002          .BYTE $F8
     B555   FC           4003          .BYTE $FC
     B556   06           4004          .BYTE $06
     B557   03           4005          .BYTE $03
     B558   01           4006          .BYTE $01
     B559   00           4007          .BYTE $00
     B55A   FF           4008          .BYTE $FF
     B55B   FF           4009          .BYTE $FF
     B55C   00           4010          .BYTE $00
     B55D   00           4011          .BYTE $00
     B55E   00           4012          .BYTE $00
     B55F   00           4013          .BYTE $00
     B560   80           4014          .BYTE $80
     B561   C0           4015          .BYTE $C0
     B562   E0           4016          .BYTE $E0
     B563   E0           4017          .BYTE $E0
     B564   03           4018          .BYTE $03
     B565   01           4019          .BYTE $01
     B566   1C           4020          .BYTE $1C
     B567   E0           4021          .BYTE $E0
     B568   1C           4022          .BYTE $1C
     B569   01           4023          .BYTE $01
     B56A   07           4024          .BYTE $07
     B56B   0F           4025          .BYTE $0F
     B56C   00           4026          .BYTE $00
     B56D   80           4027          .BYTE $80
     B56E   C0           4028          .BYTE $C0
     B56F   60           4029          .BYTE $60
     B570   70           4030          .BYTE $70
     B571   FF           4031          .BYTE $FF
     B572   FF           4032          .BYTE $FF
     B573   F8           4033          .BYTE $F8
     B574   00           4034          .BYTE $00
     B575   01           4035          .BYTE $01
     B576   03           4036          .BYTE $03
     B577   06           4037          .BYTE $06
     B578   0E           4038          .BYTE $0E
     B579   FF           4039          .BYTE $FF
     B57A   FF           4040          .BYTE $FF
     B57B   1F           4041          .BYTE $1F
     B57C   C0           4042          .BYTE $C0
     B57D   80           4043          .BYTE $80
     B57E   00           4044          .BYTE $00
     B57F   00           4045          .BYTE $00
     B580   00           4046          .BYTE $00
     B581   80           4047          .BYTE $80
.MAIN.  Commodore 6502ASM V072882    Page 2-81
   JUPITERLANDER20.asm

Error Addr  Code          Seq   Source statement

     B582   E0           4048          .BYTE $E0
     B583   F0           4049          .BYTE $F0
     B584   0F           4050          .BYTE $0F
     B585   0E           4051          .BYTE $0E
     B586   1E           4052          .BYTE $1E
     B587   1C           4053          .BYTE $1C
     B588   1C           4054          .BYTE $1C
     B589   1C           4055          .BYTE $1C
     B58A   18           4056          .BYTE $18
     B58B   18           4057          .BYTE $18
     B58C   18           4058          .BYTE $18
     B58D   0C           4059          .BYTE $0C
     B58E   06           4060          .BYTE $06
     B58F   03           4061          .BYTE $03
     B590   07           4062          .BYTE $07
     B591   0C           4063          .BYTE $0C
     B592   18           4064          .BYTE $18
     B593   30           4065          .BYTE $30
     B594   18           4066          .BYTE $18
     B595   30           4067          .BYTE $30
     B596   60           4068          .BYTE $60
     B597   C0           4069          .BYTE $C0
     B598   E0           4070          .BYTE $E0
     B599   30           4071          .BYTE $30
     B59A   18           4072          .BYTE $18
     B59B   0C           4073          .BYTE $0C
     B59C   F0           4074          .BYTE $F0
     B59D   70           4075          .BYTE $70
     B59E   78           4076          .BYTE $78
     B59F   38           4077          .BYTE $38
     B5A0   38           4078          .BYTE $38
     B5A1   38           4079          .BYTE $38
     B5A2   18           4080          .BYTE $18
     B5A3   18           4081          .BYTE $18
     B5A4   18           4082          .BYTE $18
     B5A5   18           4083          .BYTE $18
     B5A6   18           4084          .BYTE $18
     B5A7   18           4085          .BYTE $18
     B5A8   18           4086          .BYTE $18
     B5A9   18           4087          .BYTE $18
     B5AA   7E           4088          .BYTE $7E
     B5AB   E7           4089          .BYTE $E7
     B5AC   60           4090          .BYTE $60
     B5AD   7F           4091          .BYTE $7F
     B5AE   3C           4092          .BYTE $3C
     B5AF   03           4093          .BYTE $03
     B5B0   00           4094          .BYTE $00
     B5B1   00           4095          .BYTE $00
     B5B2   00           4096          .BYTE $00
     B5B3   00           4097          .BYTE $00
.MAIN.  Commodore 6502ASM V072882    Page 2-82
   JUPITERLANDER20.asm

Error Addr  Code          Seq   Source statement

     B5B4   06           4098          .BYTE $06
     B5B5   FE           4099          .BYTE $FE
     B5B6   3C           4100          .BYTE $3C
     B5B7   C0           4101          .BYTE $C0
     B5B8   00           4102          .BYTE $00
     B5B9   00           4103          .BYTE $00
     B5BA   00           4104          .BYTE $00
     B5BB   00           4105          .BYTE $00
     B5BC   18           4106          .BYTE $18
     B5BD   18           4107          .BYTE $18
     B5BE   18           4108          .BYTE $18
     B5BF   18           4109          .BYTE $18
     B5C0   18           4110          .BYTE $18
     B5C1   18           4111          .BYTE $18
     B5C2   7E           4112          .BYTE $7E
     B5C3   E7           4113          .BYTE $E7
     B5C4   00           4114          .BYTE $00
     B5C5   00           4115          .BYTE $00
     B5C6   00           4116          .BYTE $00
     B5C7   00           4117          .BYTE $00
     B5C8   01           4118          .BYTE $01
     B5C9   03           4119          .BYTE $03
     B5CA   07           4120          .BYTE $07
     B5CB   07           4121          .BYTE $07
     B5CC   1F           4122          .BYTE $1F
     B5CD   3F           4123          .BYTE $3F
     B5CE   60           4124          .BYTE $60
     B5CF   C0           4125          .BYTE $C0
     B5D0   80           4126          .BYTE $80
     B5D1   00           4127          .BYTE $00
     B5D2   FF           4128          .BYTE $FF
     B5D3   FF           4129          .BYTE $FF
     B5D4   F8           4130          .BYTE $F8
     B5D5   FC           4131          .BYTE $FC
     B5D6   06           4132          .BYTE $06
     B5D7   03           4133          .BYTE $03
     B5D8   01           4134          .BYTE $01
     B5D9   00           4135          .BYTE $00
     B5DA   FF           4136          .BYTE $FF
     B5DB   FF           4137          .BYTE $FF
     B5DC   00           4138          .BYTE $00
     B5DD   00           4139          .BYTE $00
     B5DE   00           4140          .BYTE $00
     B5DF   00           4141          .BYTE $00
     B5E0   80           4142          .BYTE $80
     B5E1   C0           4143          .BYTE $C0
     B5E2   E0           4144          .BYTE $E0
     B5E3   E0           4145          .BYTE $E0
     B5E4   03           4146          .BYTE $03
     B5E5   01           4147          .BYTE $01
.MAIN.  Commodore 6502ASM V072882    Page 2-83
   JUPITERLANDER20.asm

Error Addr  Code          Seq   Source statement

     B5E6   1C           4148          .BYTE $1C
     B5E7   E0           4149          .BYTE $E0
     B5E8   1C           4150          .BYTE $1C
     B5E9   01           4151          .BYTE $01
     B5EA   07           4152          .BYTE $07
     B5EB   0F           4153          .BYTE $0F
     B5EC   00           4154          .BYTE $00
     B5ED   80           4155          .BYTE $80
     B5EE   C0           4156          .BYTE $C0
     B5EF   60           4157          .BYTE $60
     B5F0   70           4158          .BYTE $70
     B5F1   FF           4159          .BYTE $FF
     B5F2   FF           4160          .BYTE $FF
     B5F3   F8           4161          .BYTE $F8
     B5F4   00           4162          .BYTE $00
     B5F5   01           4163          .BYTE $01
     B5F6   03           4164          .BYTE $03
     B5F7   06           4165          .BYTE $06
     B5F8   0E           4166          .BYTE $0E
     B5F9   FF           4167          .BYTE $FF
     B5FA   FF           4168          .BYTE $FF
     B5FB   1F           4169          .BYTE $1F
     B5FC   C0           4170          .BYTE $C0
     B5FD   80           4171          .BYTE $80
     B5FE   00           4172          .BYTE $00
     B5FF   00           4173          .BYTE $00
     B600   00           4174          .BYTE $00
     B601   80           4175          .BYTE $80
     B602   E0           4176          .BYTE $E0
     B603   F0           4177          .BYTE $F0
     B604   0F           4178          .BYTE $0F
     B605   0E           4179          .BYTE $0E
     B606   1E           4180          .BYTE $1E
     B607   1C           4181          .BYTE $1C
     B608   1C           4182          .BYTE $1C
     B609   1C           4183          .BYTE $1C
     B60A   18           4184          .BYTE $18
     B60B   18           4185          .BYTE $18
     B60C   18           4186          .BYTE $18
     B60D   0C           4187          .BYTE $0C
     B60E   06           4188          .BYTE $06
     B60F   03           4189          .BYTE $03
     B610   07           4190          .BYTE $07
     B611   0C           4191          .BYTE $0C
     B612   18           4192          .BYTE $18
     B613   30           4193          .BYTE $30
     B614   18           4194          .BYTE $18
     B615   30           4195          .BYTE $30
     B616   60           4196          .BYTE $60
     B617   C0           4197          .BYTE $C0
.MAIN.  Commodore 6502ASM V072882    Page 2-84
   JUPITERLANDER20.asm

Error Addr  Code          Seq   Source statement

     B618   E0           4198          .BYTE $E0
     B619   30           4199          .BYTE $30
     B61A   18           4200          .BYTE $18
     B61B   0C           4201          .BYTE $0C
     B61C   F0           4202          .BYTE $F0
     B61D   70           4203          .BYTE $70
     B61E   78           4204          .BYTE $78
     B61F   38           4205          .BYTE $38
     B620   38           4206          .BYTE $38
     B621   38           4207          .BYTE $38
     B622   18           4208          .BYTE $18
     B623   18           4209          .BYTE $18
     B624   18           4210          .BYTE $18
     B625   18           4211          .BYTE $18
     B626   18           4212          .BYTE $18
     B627   18           4213          .BYTE $18
     B628   18           4214          .BYTE $18
     B629   18           4215          .BYTE $18
     B62A   7E           4216          .BYTE $7E
     B62B   E7           4217          .BYTE $E7
     B62C   60           4218          .BYTE $60
     B62D   7F           4219          .BYTE $7F
     B62E   30           4220          .BYTE $30
     B62F   0C           4221          .BYTE $0C
     B630   02           4222          .BYTE $02
     B631   01           4223          .BYTE $01
     B632   00           4224          .BYTE $00
     B633   00           4225          .BYTE $00
     B634   06           4226          .BYTE $06
     B635   FE           4227          .BYTE $FE
     B636   0C           4228          .BYTE $0C
     B637   30           4229          .BYTE $30
     B638   40           4230          .BYTE $40
     B639   80           4231          .BYTE $80
     B63A   00           4232          .BYTE $00
     B63B   00           4233          .BYTE $00
     B63C   18           4234          .BYTE $18
     B63D   18           4235          .BYTE $18
     B63E   18           4236          .BYTE $18
     B63F   18           4237          .BYTE $18
     B640   18           4238          .BYTE $18
     B641   18           4239          .BYTE $18
     B642   7E           4240          .BYTE $7E
     B643   E7           4241          .BYTE $E7
     B644   00           4242          .BYTE $00
     B645   00           4243          .BYTE $00
     B646   00           4244          .BYTE $00
     B647   00           4245          .BYTE $00
     B648   01           4246          .BYTE $01
     B649   03           4247          .BYTE $03
.MAIN.  Commodore 6502ASM V072882    Page 2-85
   JUPITERLANDER20.asm

Error Addr  Code          Seq   Source statement

     B64A   07           4248          .BYTE $07
     B64B   07           4249          .BYTE $07
     B64C   1F           4250          .BYTE $1F
     B64D   3F           4251          .BYTE $3F
     B64E   60           4252          .BYTE $60
     B64F   C0           4253          .BYTE $C0
     B650   80           4254          .BYTE $80
     B651   00           4255          .BYTE $00
     B652   FF           4256          .BYTE $FF
     B653   FF           4257          .BYTE $FF
     B654   F8           4258          .BYTE $F8
     B655   FC           4259          .BYTE $FC
     B656   06           4260          .BYTE $06
     B657   03           4261          .BYTE $03
     B658   01           4262          .BYTE $01
     B659   00           4263          .BYTE $00
     B65A   FF           4264          .BYTE $FF
     B65B   FF           4265          .BYTE $FF
     B65C   00           4266          .BYTE $00
     B65D   00           4267          .BYTE $00
     B65E   00           4268          .BYTE $00
     B65F   00           4269          .BYTE $00
     B660   80           4270          .BYTE $80
     B661   C0           4271          .BYTE $C0
     B662   E0           4272          .BYTE $E0
     B663   E0           4273          .BYTE $E0
     B664   03           4274          .BYTE $03
     B665   01           4275          .BYTE $01
     B666   1C           4276          .BYTE $1C
     B667   E0           4277          .BYTE $E0
     B668   1C           4278          .BYTE $1C
     B669   01           4279          .BYTE $01
     B66A   07           4280          .BYTE $07
     B66B   0F           4281          .BYTE $0F
     B66C   00           4282          .BYTE $00
     B66D   80           4283          .BYTE $80
     B66E   C0           4284          .BYTE $C0
     B66F   60           4285          .BYTE $60
     B670   70           4286          .BYTE $70
     B671   FF           4287          .BYTE $FF
     B672   FF           4288          .BYTE $FF
     B673   F8           4289          .BYTE $F8
     B674   00           4290          .BYTE $00
     B675   01           4291          .BYTE $01
     B676   03           4292          .BYTE $03
     B677   06           4293          .BYTE $06
     B678   0E           4294          .BYTE $0E
     B679   FF           4295          .BYTE $FF
     B67A   FF           4296          .BYTE $FF
     B67B   1F           4297          .BYTE $1F
.MAIN.  Commodore 6502ASM V072882    Page 2-86
   JUPITERLANDER20.asm

Error Addr  Code          Seq   Source statement

     B67C   C0           4298          .BYTE $C0
     B67D   80           4299          .BYTE $80
     B67E   00           4300          .BYTE $00
     B67F   00           4301          .BYTE $00
     B680   00           4302          .BYTE $00
     B681   80           4303          .BYTE $80
     B682   E0           4304          .BYTE $E0
     B683   F0           4305          .BYTE $F0
     B684   0F           4306          .BYTE $0F
     B685   0E           4307          .BYTE $0E
     B686   1E           4308          .BYTE $1E
     B687   1C           4309          .BYTE $1C
     B688   1C           4310          .BYTE $1C
     B689   1C           4311          .BYTE $1C
     B68A   18           4312          .BYTE $18
     B68B   18           4313          .BYTE $18
     B68C   18           4314          .BYTE $18
     B68D   0C           4315          .BYTE $0C
     B68E   06           4316          .BYTE $06
     B68F   03           4317          .BYTE $03
     B690   07           4318          .BYTE $07
     B691   0C           4319          .BYTE $0C
     B692   18           4320          .BYTE $18
     B693   30           4321          .BYTE $30
     B694   18           4322          .BYTE $18
     B695   30           4323          .BYTE $30
     B696   60           4324          .BYTE $60
     B697   C0           4325          .BYTE $C0
     B698   E0           4326          .BYTE $E0
     B699   30           4327          .BYTE $30
     B69A   18           4328          .BYTE $18
     B69B   0C           4329          .BYTE $0C
     B69C   F0           4330          .BYTE $F0
     B69D   70           4331          .BYTE $70
     B69E   78           4332          .BYTE $78
     B69F   38           4333          .BYTE $38
     B6A0   38           4334          .BYTE $38
     B6A1   38           4335          .BYTE $38
     B6A2   18           4336          .BYTE $18
     B6A3   18           4337          .BYTE $18
     B6A4   18           4338          .BYTE $18
     B6A5   18           4339          .BYTE $18
     B6A6   18           4340          .BYTE $18
     B6A7   18           4341          .BYTE $18
     B6A8   18           4342          .BYTE $18
     B6A9   18           4343          .BYTE $18
     B6AA   7E           4344          .BYTE $7E
     B6AB   E7           4345          .BYTE $E7
     B6AC   60           4346          .BYTE $60
     B6AD   7F           4347          .BYTE $7F
.MAIN.  Commodore 6502ASM V072882    Page 2-87
   JUPITERLANDER20.asm

Error Addr  Code          Seq   Source statement

     B6AE   20           4348          .BYTE $20
     B6AF   10           4349          .BYTE $10
     B6B0   08           4350          .BYTE $08
     B6B1   04           4351          .BYTE $04
     B6B2   02           4352          .BYTE $02
     B6B3   01           4353          .BYTE $01
     B6B4   06           4354          .BYTE $06
     B6B5   FE           4355          .BYTE $FE
     B6B6   04           4356          .BYTE $04
     B6B7   08           4357          .BYTE $08
     B6B8   10           4358          .BYTE $10
     B6B9   20           4359          .BYTE $20
     B6BA   40           4360          .BYTE $40
     B6BB   80           4361          .BYTE $80
     B6BC   18           4362          .BYTE $18
     B6BD   18           4363          .BYTE $18
     B6BE   18           4364          .BYTE $18
     B6BF   18           4365          .BYTE $18
     B6C0   18           4366          .BYTE $18
     B6C1   18           4367          .BYTE $18
     B6C2   7E           4368          .BYTE $7E
     B6C3   E7           4369          .BYTE $E7
     B6C4   00           4370          .BYTE $00
     B6C5   00           4371          .BYTE $00
     B6C6   00           4372          .BYTE $00
     B6C7   00           4373          .BYTE $00
     B6C8   01           4374          .BYTE $01
     B6C9   03           4375          .BYTE $03
     B6CA   07           4376          .BYTE $07
     B6CB   07           4377          .BYTE $07
     B6CC   1F           4378          .BYTE $1F
     B6CD   3F           4379          .BYTE $3F
     B6CE   60           4380          .BYTE $60
     B6CF   C0           4381          .BYTE $C0
     B6D0   80           4382          .BYTE $80
     B6D1   00           4383          .BYTE $00
     B6D2   FF           4384          .BYTE $FF
     B6D3   FF           4385          .BYTE $FF
     B6D4   F8           4386          .BYTE $F8
     B6D5   FC           4387          .BYTE $FC
     B6D6   06           4388          .BYTE $06
     B6D7   03           4389          .BYTE $03
     B6D8   01           4390          .BYTE $01
     B6D9   00           4391          .BYTE $00
     B6DA   FF           4392          .BYTE $FF
     B6DB   FF           4393          .BYTE $FF
     B6DC   00           4394          .BYTE $00
     B6DD   00           4395          .BYTE $00
     B6DE   00           4396          .BYTE $00
     B6DF   00           4397          .BYTE $00
.MAIN.  Commodore 6502ASM V072882    Page 2-88
   JUPITERLANDER20.asm

Error Addr  Code          Seq   Source statement

     B6E0   80           4398          .BYTE $80
     B6E1   C0           4399          .BYTE $C0
     B6E2   E0           4400          .BYTE $E0
     B6E3   E0           4401          .BYTE $E0
     B6E4   03           4402          .BYTE $03
     B6E5   01           4403          .BYTE $01
     B6E6   00           4404          .BYTE $00
     B6E7   00           4405          .BYTE $00
     B6E8   00           4406          .BYTE $00
     B6E9   01           4407          .BYTE $01
     B6EA   07           4408          .BYTE $07
     B6EB   0F           4409          .BYTE $0F
     B6EC   00           4410          .BYTE $00
     B6ED   80           4411          .BYTE $80
     B6EE   C0           4412          .BYTE $C0
     B6EF   60           4413          .BYTE $60
     B6F0   70           4414          .BYTE $70
     B6F1   FF           4415          .BYTE $FF
     B6F2   FF           4416          .BYTE $FF
     B6F3   F8           4417          .BYTE $F8
     B6F4   00           4418          .BYTE $00
     B6F5   01           4419          .BYTE $01
     B6F6   03           4420          .BYTE $03
     B6F7   06           4421          .BYTE $06
     B6F8   0E           4422          .BYTE $0E
     B6F9   FF           4423          .BYTE $FF
     B6FA   FF           4424          .BYTE $FF
     B6FB   1F           4425          .BYTE $1F
     B6FC   C0           4426          .BYTE $C0
     B6FD   80           4427          .BYTE $80
     B6FE   38           4428          .BYTE $38
     B6FF   07           4429          .BYTE $07
     B700   38           4430          .BYTE $38
     B701   80           4431          .BYTE $80
     B702   E0           4432          .BYTE $E0
     B703   F0           4433          .BYTE $F0
     B704   0F           4434          .BYTE $0F
     B705   0E           4435          .BYTE $0E
     B706   1E           4436          .BYTE $1E
     B707   1C           4437          .BYTE $1C
     B708   1C           4438          .BYTE $1C
     B709   1C           4439          .BYTE $1C
     B70A   18           4440          .BYTE $18
     B70B   18           4441          .BYTE $18
     B70C   18           4442          .BYTE $18
     B70D   0C           4443          .BYTE $0C
     B70E   06           4444          .BYTE $06
     B70F   03           4445          .BYTE $03
     B710   07           4446          .BYTE $07
     B711   0C           4447          .BYTE $0C
.MAIN.  Commodore 6502ASM V072882    Page 2-89
   JUPITERLANDER20.asm

Error Addr  Code          Seq   Source statement

     B712   18           4448          .BYTE $18
     B713   30           4449          .BYTE $30
     B714   18           4450          .BYTE $18
     B715   30           4451          .BYTE $30
     B716   60           4452          .BYTE $60
     B717   C0           4453          .BYTE $C0
     B718   E0           4454          .BYTE $E0
     B719   30           4455          .BYTE $30
     B71A   18           4456          .BYTE $18
     B71B   0C           4457          .BYTE $0C
     B71C   F0           4458          .BYTE $F0
     B71D   70           4459          .BYTE $70
     B71E   78           4460          .BYTE $78
     B71F   38           4461          .BYTE $38
     B720   38           4462          .BYTE $38
     B721   38           4463          .BYTE $38
     B722   18           4464          .BYTE $18
     B723   18           4465          .BYTE $18
     B724   18           4466          .BYTE $18
     B725   18           4467          .BYTE $18
     B726   18           4468          .BYTE $18
     B727   18           4469          .BYTE $18
     B728   18           4470          .BYTE $18
     B729   18           4471          .BYTE $18
     B72A   7E           4472          .BYTE $7E
     B72B   E7           4473          .BYTE $E7
     B72C   60           4474          .BYTE $60
     B72D   7F           4475          .BYTE $7F
     B72E   00           4476          .BYTE $00
     B72F   00           4477          .BYTE $00
     B730   00           4478          .BYTE $00
     B731   00           4479          .BYTE $00
     B732   00           4480          .BYTE $00
     B733   00           4481          .BYTE $00
     B734   06           4482          .BYTE $06
     B735   FE           4483          .BYTE $FE
     B736   00           4484          .BYTE $00
     B737   00           4485          .BYTE $00
     B738   00           4486          .BYTE $00
     B739   00           4487          .BYTE $00
     B73A   00           4488          .BYTE $00
     B73B   00           4489          .BYTE $00
     B73C   18           4490          .BYTE $18
     B73D   18           4491          .BYTE $18
     B73E   18           4492          .BYTE $18
     B73F   18           4493          .BYTE $18
     B740   18           4494          .BYTE $18
     B741   18           4495          .BYTE $18
     B742   7E           4496          .BYTE $7E
     B743   E7           4497          .BYTE $E7
.MAIN.  Commodore 6502ASM V072882    Page 2-90
   JUPITERLANDER20.asm

Error Addr  Code          Seq   Source statement

     B744   00           4498          .BYTE $00
     B745   00           4499          .BYTE $00
     B746   00           4500          .BYTE $00
     B747   00           4501          .BYTE $00
     B748   01           4502          .BYTE $01
     B749   03           4503          .BYTE $03
     B74A   07           4504          .BYTE $07
     B74B   07           4505          .BYTE $07
     B74C   1F           4506          .BYTE $1F
     B74D   3F           4507          .BYTE $3F
     B74E   60           4508          .BYTE $60
     B74F   C0           4509          .BYTE $C0
     B750   80           4510          .BYTE $80
     B751   00           4511          .BYTE $00
     B752   FF           4512          .BYTE $FF
     B753   FF           4513          .BYTE $FF
     B754   F8           4514          .BYTE $F8
     B755   FC           4515          .BYTE $FC
     B756   06           4516          .BYTE $06
     B757   03           4517          .BYTE $03
     B758   01           4518          .BYTE $01
     B759   00           4519          .BYTE $00
     B75A   FF           4520          .BYTE $FF
     B75B   FF           4521          .BYTE $FF
     B75C   00           4522          .BYTE $00
     B75D   00           4523          .BYTE $00
     B75E   00           4524          .BYTE $00
     B75F   00           4525          .BYTE $00
     B760   80           4526          .BYTE $80
     B761   C0           4527          .BYTE $C0
     B762   E0           4528          .BYTE $E0
     B763   E0           4529          .BYTE $E0
     B764   03           4530          .BYTE $03
     B765   01           4531          .BYTE $01
     B766   00           4532          .BYTE $00
     B767   00           4533          .BYTE $00
     B768   00           4534          .BYTE $00
     B769   01           4535          .BYTE $01
     B76A   07           4536          .BYTE $07
     B76B   0F           4537          .BYTE $0F
     B76C   00           4538          .BYTE $00
     B76D   80           4539          .BYTE $80
     B76E   C0           4540          .BYTE $C0
     B76F   60           4541          .BYTE $60
     B770   70           4542          .BYTE $70
     B771   FF           4543          .BYTE $FF
     B772   FF           4544          .BYTE $FF
     B773   F8           4545          .BYTE $F8
     B774   00           4546          .BYTE $00
     B775   01           4547          .BYTE $01
.MAIN.  Commodore 6502ASM V072882    Page 2-91
   JUPITERLANDER20.asm

Error Addr  Code          Seq   Source statement

     B776   03           4548          .BYTE $03
     B777   06           4549          .BYTE $06
     B778   0E           4550          .BYTE $0E
     B779   FF           4551          .BYTE $FF
     B77A   FF           4552          .BYTE $FF
     B77B   1F           4553          .BYTE $1F
     B77C   C0           4554          .BYTE $C0
     B77D   80           4555          .BYTE $80
     B77E   38           4556          .BYTE $38
     B77F   07           4557          .BYTE $07
     B780   38           4558          .BYTE $38
     B781   80           4559          .BYTE $80
     B782   E0           4560          .BYTE $E0
     B783   F0           4561          .BYTE $F0
     B784   0F           4562          .BYTE $0F
     B785   0E           4563          .BYTE $0E
     B786   1E           4564          .BYTE $1E
     B787   1C           4565          .BYTE $1C
     B788   1C           4566          .BYTE $1C
     B789   1C           4567          .BYTE $1C
     B78A   18           4568          .BYTE $18
     B78B   18           4569          .BYTE $18
     B78C   18           4570          .BYTE $18
     B78D   0C           4571          .BYTE $0C
     B78E   06           4572          .BYTE $06
     B78F   03           4573          .BYTE $03
     B790   07           4574          .BYTE $07
     B791   0C           4575          .BYTE $0C
     B792   18           4576          .BYTE $18
     B793   30           4577          .BYTE $30
     B794   18           4578          .BYTE $18
     B795   30           4579          .BYTE $30
     B796   60           4580          .BYTE $60
     B797   C0           4581          .BYTE $C0
     B798   E0           4582          .BYTE $E0
     B799   30           4583          .BYTE $30
     B79A   18           4584          .BYTE $18
     B79B   0C           4585          .BYTE $0C
     B79C   F0           4586          .BYTE $F0
     B79D   70           4587          .BYTE $70
     B79E   78           4588          .BYTE $78
     B79F   38           4589          .BYTE $38
     B7A0   38           4590          .BYTE $38
     B7A1   38           4591          .BYTE $38
     B7A2   18           4592          .BYTE $18
     B7A3   18           4593          .BYTE $18
     B7A4   18           4594          .BYTE $18
     B7A5   18           4595          .BYTE $18
     B7A6   18           4596          .BYTE $18
     B7A7   18           4597          .BYTE $18
.MAIN.  Commodore 6502ASM V072882    Page 2-92
   JUPITERLANDER20.asm

Error Addr  Code          Seq   Source statement

     B7A8   18           4598          .BYTE $18
     B7A9   18           4599          .BYTE $18
     B7AA   7E           4600          .BYTE $7E
     B7AB   E7           4601          .BYTE $E7
     B7AC   60           4602          .BYTE $60
     B7AD   7F           4603          .BYTE $7F
     B7AE   3C           4604          .BYTE $3C
     B7AF   03           4605          .BYTE $03
     B7B0   00           4606          .BYTE $00
     B7B1   00           4607          .BYTE $00
     B7B2   00           4608          .BYTE $00
     B7B3   00           4609          .BYTE $00
     B7B4   06           4610          .BYTE $06
     B7B5   FE           4611          .BYTE $FE
     B7B6   3C           4612          .BYTE $3C
     B7B7   C0           4613          .BYTE $C0
     B7B8   00           4614          .BYTE $00
     B7B9   00           4615          .BYTE $00
     B7BA   00           4616          .BYTE $00
     B7BB   00           4617          .BYTE $00
     B7BC   18           4618          .BYTE $18
     B7BD   18           4619          .BYTE $18
     B7BE   18           4620          .BYTE $18
     B7BF   18           4621          .BYTE $18
     B7C0   18           4622          .BYTE $18
     B7C1   18           4623          .BYTE $18
     B7C2   7E           4624          .BYTE $7E
     B7C3   E7           4625          .BYTE $E7
     B7C4   00           4626          .BYTE $00
     B7C5   00           4627          .BYTE $00
     B7C6   00           4628          .BYTE $00
     B7C7   00           4629          .BYTE $00
     B7C8   01           4630          .BYTE $01
     B7C9   03           4631          .BYTE $03
     B7CA   07           4632          .BYTE $07
     B7CB   07           4633          .BYTE $07
     B7CC   1F           4634          .BYTE $1F
     B7CD   3F           4635          .BYTE $3F
     B7CE   60           4636          .BYTE $60
     B7CF   C0           4637          .BYTE $C0
     B7D0   80           4638          .BYTE $80
     B7D1   00           4639          .BYTE $00
     B7D2   FF           4640          .BYTE $FF
     B7D3   FF           4641          .BYTE $FF
     B7D4   F8           4642          .BYTE $F8
     B7D5   FC           4643          .BYTE $FC
     B7D6   06           4644          .BYTE $06
     B7D7   03           4645          .BYTE $03
     B7D8   01           4646          .BYTE $01
     B7D9   00           4647          .BYTE $00
.MAIN.  Commodore 6502ASM V072882    Page 2-93
   JUPITERLANDER20.asm

Error Addr  Code          Seq   Source statement

     B7DA   FF           4648          .BYTE $FF
     B7DB   FF           4649          .BYTE $FF
     B7DC   00           4650          .BYTE $00
     B7DD   00           4651          .BYTE $00
     B7DE   00           4652          .BYTE $00
     B7DF   00           4653          .BYTE $00
     B7E0   80           4654          .BYTE $80
     B7E1   C0           4655          .BYTE $C0
     B7E2   E0           4656          .BYTE $E0
     B7E3   E0           4657          .BYTE $E0
     B7E4   03           4658          .BYTE $03
     B7E5   01           4659          .BYTE $01
     B7E6   00           4660          .BYTE $00
     B7E7   00           4661          .BYTE $00
     B7E8   00           4662          .BYTE $00
     B7E9   01           4663          .BYTE $01
     B7EA   07           4664          .BYTE $07
     B7EB   0F           4665          .BYTE $0F
     B7EC   00           4666          .BYTE $00
     B7ED   80           4667          .BYTE $80
     B7EE   C0           4668          .BYTE $C0
     B7EF   60           4669          .BYTE $60
     B7F0   70           4670          .BYTE $70
     B7F1   FF           4671          .BYTE $FF
     B7F2   FF           4672          .BYTE $FF
     B7F3   F8           4673          .BYTE $F8
     B7F4   00           4674          .BYTE $00
     B7F5   01           4675          .BYTE $01
     B7F6   03           4676          .BYTE $03
     B7F7   06           4677          .BYTE $06
     B7F8   0E           4678          .BYTE $0E
     B7F9   FF           4679          .BYTE $FF
     B7FA   FF           4680          .BYTE $FF
     B7FB   1F           4681          .BYTE $1F
     B7FC   C0           4682          .BYTE $C0
     B7FD   80           4683          .BYTE $80
     B7FE   38           4684          .BYTE $38
     B7FF   07           4685          .BYTE $07
     B800   38           4686          .BYTE $38
     B801   80           4687          .BYTE $80
     B802   E0           4688          .BYTE $E0
     B803   F0           4689          .BYTE $F0
     B804   0F           4690          .BYTE $0F
     B805   0E           4691          .BYTE $0E
     B806   1E           4692          .BYTE $1E
     B807   1C           4693          .BYTE $1C
     B808   1C           4694          .BYTE $1C
     B809   1C           4695          .BYTE $1C
     B80A   18           4696          .BYTE $18
     B80B   18           4697          .BYTE $18
.MAIN.  Commodore 6502ASM V072882    Page 2-94
   JUPITERLANDER20.asm

Error Addr  Code          Seq   Source statement

     B80C   18           4698          .BYTE $18
     B80D   0C           4699          .BYTE $0C
     B80E   06           4700          .BYTE $06
     B80F   03           4701          .BYTE $03
     B810   07           4702          .BYTE $07
     B811   0C           4703          .BYTE $0C
     B812   18           4704          .BYTE $18
     B813   30           4705          .BYTE $30
     B814   18           4706          .BYTE $18
     B815   30           4707          .BYTE $30
     B816   60           4708          .BYTE $60
     B817   C0           4709          .BYTE $C0
     B818   E0           4710          .BYTE $E0
     B819   30           4711          .BYTE $30
     B81A   18           4712          .BYTE $18
     B81B   0C           4713          .BYTE $0C
     B81C   F0           4714          .BYTE $F0
     B81D   70           4715          .BYTE $70
     B81E   78           4716          .BYTE $78
     B81F   38           4717          .BYTE $38
     B820   38           4718          .BYTE $38
     B821   38           4719          .BYTE $38
     B822   18           4720          .BYTE $18
     B823   18           4721          .BYTE $18
     B824   18           4722          .BYTE $18
     B825   18           4723          .BYTE $18
     B826   18           4724          .BYTE $18
     B827   18           4725          .BYTE $18
     B828   18           4726          .BYTE $18
     B829   18           4727          .BYTE $18
     B82A   7E           4728          .BYTE $7E
     B82B   E7           4729          .BYTE $E7
     B82C   60           4730          .BYTE $60
     B82D   7F           4731          .BYTE $7F
     B82E   30           4732          .BYTE $30
     B82F   0C           4733          .BYTE $0C
     B830   02           4734          .BYTE $02
     B831   01           4735          .BYTE $01
     B832   00           4736          .BYTE $00
     B833   00           4737          .BYTE $00
     B834   06           4738          .BYTE $06
     B835   FE           4739          .BYTE $FE
     B836   0C           4740          .BYTE $0C
     B837   30           4741          .BYTE $30
     B838   40           4742          .BYTE $40
     B839   80           4743          .BYTE $80
     B83A   00           4744          .BYTE $00
     B83B   00           4745          .BYTE $00
     B83C   18           4746          .BYTE $18
     B83D   18           4747          .BYTE $18
.MAIN.  Commodore 6502ASM V072882    Page 2-95
   JUPITERLANDER20.asm

Error Addr  Code          Seq   Source statement

     B83E   18           4748          .BYTE $18
     B83F   18           4749          .BYTE $18
     B840   18           4750          .BYTE $18
     B841   18           4751          .BYTE $18
     B842   7E           4752          .BYTE $7E
     B843   E7           4753          .BYTE $E7
     B844   00           4754          .BYTE $00
     B845   00           4755          .BYTE $00
     B846   00           4756          .BYTE $00
     B847   00           4757          .BYTE $00
     B848   01           4758          .BYTE $01
     B849   03           4759          .BYTE $03
     B84A   07           4760          .BYTE $07
     B84B   07           4761          .BYTE $07
     B84C   1F           4762          .BYTE $1F
     B84D   3F           4763          .BYTE $3F
     B84E   60           4764          .BYTE $60
     B84F   C0           4765          .BYTE $C0
     B850   80           4766          .BYTE $80
     B851   00           4767          .BYTE $00
     B852   FF           4768          .BYTE $FF
     B853   FF           4769          .BYTE $FF
     B854   F8           4770          .BYTE $F8
     B855   FC           4771          .BYTE $FC
     B856   06           4772          .BYTE $06
     B857   03           4773          .BYTE $03
     B858   01           4774          .BYTE $01
     B859   00           4775          .BYTE $00
     B85A   FF           4776          .BYTE $FF
     B85B   FF           4777          .BYTE $FF
     B85C   00           4778          .BYTE $00
     B85D   00           4779          .BYTE $00
     B85E   00           4780          .BYTE $00
     B85F   00           4781          .BYTE $00
     B860   80           4782          .BYTE $80
     B861   C0           4783          .BYTE $C0
     B862   E0           4784          .BYTE $E0
     B863   E0           4785          .BYTE $E0
     B864   03           4786          .BYTE $03
     B865   01           4787          .BYTE $01
     B866   00           4788          .BYTE $00
     B867   00           4789          .BYTE $00
     B868   00           4790          .BYTE $00
     B869   01           4791          .BYTE $01
     B86A   07           4792          .BYTE $07
     B86B   0F           4793          .BYTE $0F
     B86C   00           4794          .BYTE $00
     B86D   80           4795          .BYTE $80
     B86E   C0           4796          .BYTE $C0
     B86F   60           4797          .BYTE $60
.MAIN.  Commodore 6502ASM V072882    Page 2-96
   JUPITERLANDER20.asm

Error Addr  Code          Seq   Source statement

     B870   70           4798          .BYTE $70
     B871   FF           4799          .BYTE $FF
     B872   FF           4800          .BYTE $FF
     B873   F8           4801          .BYTE $F8
     B874   00           4802          .BYTE $00
     B875   01           4803          .BYTE $01
     B876   03           4804          .BYTE $03
     B877   06           4805          .BYTE $06
     B878   0E           4806          .BYTE $0E
     B879   FF           4807          .BYTE $FF
     B87A   FF           4808          .BYTE $FF
     B87B   1F           4809          .BYTE $1F
     B87C   C0           4810          .BYTE $C0
     B87D   80           4811          .BYTE $80
     B87E   38           4812          .BYTE $38
     B87F   07           4813          .BYTE $07
     B880   38           4814          .BYTE $38
     B881   80           4815          .BYTE $80
     B882   E0           4816          .BYTE $E0
     B883   F0           4817          .BYTE $F0
     B884   0F           4818          .BYTE $0F
     B885   0E           4819          .BYTE $0E
     B886   1E           4820          .BYTE $1E
     B887   1C           4821          .BYTE $1C
     B888   1C           4822          .BYTE $1C
     B889   1C           4823          .BYTE $1C
     B88A   18           4824          .BYTE $18
     B88B   18           4825          .BYTE $18
     B88C   18           4826          .BYTE $18
     B88D   0C           4827          .BYTE $0C
     B88E   06           4828          .BYTE $06
     B88F   03           4829          .BYTE $03
     B890   07           4830          .BYTE $07
     B891   0C           4831          .BYTE $0C
     B892   18           4832          .BYTE $18
     B893   30           4833          .BYTE $30
     B894   18           4834          .BYTE $18
     B895   30           4835          .BYTE $30
     B896   60           4836          .BYTE $60
     B897   C0           4837          .BYTE $C0
     B898   E0           4838          .BYTE $E0
     B899   30           4839          .BYTE $30
     B89A   18           4840          .BYTE $18
     B89B   0C           4841          .BYTE $0C
     B89C   F0           4842          .BYTE $F0
     B89D   70           4843          .BYTE $70
     B89E   78           4844          .BYTE $78
     B89F   38           4845          .BYTE $38
     B8A0   38           4846          .BYTE $38
     B8A1   38           4847          .BYTE $38
.MAIN.  Commodore 6502ASM V072882    Page 2-97
   JUPITERLANDER20.asm

Error Addr  Code          Seq   Source statement

     B8A2   18           4848          .BYTE $18
     B8A3   18           4849          .BYTE $18
     B8A4   18           4850          .BYTE $18
     B8A5   18           4851          .BYTE $18
     B8A6   18           4852          .BYTE $18
     B8A7   18           4853          .BYTE $18
     B8A8   18           4854          .BYTE $18
     B8A9   18           4855          .BYTE $18
     B8AA   7E           4856          .BYTE $7E
     B8AB   E7           4857          .BYTE $E7
     B8AC   60           4858          .BYTE $60
     B8AD   7F           4859          .BYTE $7F
     B8AE   20           4860          .BYTE $20
     B8AF   10           4861          .BYTE $10
     B8B0   08           4862          .BYTE $08
     B8B1   04           4863          .BYTE $04
     B8B2   02           4864          .BYTE $02
     B8B3   01           4865          .BYTE $01
     B8B4   06           4866          .BYTE $06
     B8B5   FE           4867          .BYTE $FE
     B8B6   04           4868          .BYTE $04
     B8B7   08           4869          .BYTE $08
     B8B8   10           4870          .BYTE $10
     B8B9   20           4871          .BYTE $20
     B8BA   40           4872          .BYTE $40
     B8BB   80           4873          .BYTE $80
     B8BC   18           4874          .BYTE $18
     B8BD   18           4875          .BYTE $18
     B8BE   18           4876          .BYTE $18
     B8BF   18           4877          .BYTE $18
     B8C0   18           4878          .BYTE $18
     B8C1   18           4879          .BYTE $18
     B8C2   7E           4880          .BYTE $7E
     B8C3   E7           4881          .BYTE $E7
                         4882   ;********************************
                         4883   ;
                         4884   ;********************************
     B8C4   00           4885   XXB8C4 .BYTE $00
     B8C5   00           4886          .BYTE $00
     B8C6   00           4887          .BYTE $00
     B8C7   00           4888          .BYTE $00
     B8C8   00           4889          .BYTE $00
     B8C9   00           4890          .BYTE $00
     B8CA   00           4891          .BYTE $00
     B8CB   00           4892          .BYTE $00
     B8CC   FF           4893          .BYTE $FF
     B8CD   FF           4894          .BYTE $FF
     B8CE   FF           4895          .BYTE $FF
     B8CF   FF           4896          .BYTE $FF
     B8D0   FF           4897          .BYTE $FF
.MAIN.  Commodore 6502ASM V072882    Page 2-98
   JUPITERLANDER20.asm

Error Addr  Code          Seq   Source statement

     B8D1   FF           4898          .BYTE $FF
     B8D2   FF           4899          .BYTE $FF
     B8D3   FF           4900          .BYTE $FF
     B8D4   FF           4901          .BYTE $FF
     B8D5   BD           4902          .BYTE $BD
     B8D6   DB           4903          .BYTE $DB
     B8D7   E7           4904          .BYTE $E7
     B8D8   E7           4905          .BYTE $E7
     B8D9   DB           4906          .BYTE $DB
     B8DA   BD           4907          .BYTE $BD
     B8DB   FF           4908          .BYTE $FF
     B8DC   C3           4909          .BYTE $C3
     B8DD   BD           4910          .BYTE $BD
     B8DE   FD           4911          .BYTE $FD
     B8DF   F3           4912          .BYTE $F3
     B8E0   CF           4913          .BYTE $CF
     B8E1   BF           4914          .BYTE $BF
     B8E2   81           4915          .BYTE $81
     B8E3   FF           4916          .BYTE $FF
     B8E4   81           4917          .BYTE $81
     B8E5   BF           4918          .BYTE $BF
     B8E6   87           4919          .BYTE $87
     B8E7   FB           4920          .BYTE $FB
     B8E8   FD           4921          .BYTE $FD
     B8E9   BB           4922          .BYTE $BB
     B8EA   C7           4923          .BYTE $C7
     B8EB   FF           4924          .BYTE $FF
     B8EC   F7           4925          .BYTE $F7
     B8ED   E7           4926          .BYTE $E7
     B8EE   D7           4927          .BYTE $D7
     B8EF   F7           4928          .BYTE $F7
     B8F0   F7           4929          .BYTE $F7
     B8F1   F7           4930          .BYTE $F7
     B8F2   C1           4931          .BYTE $C1
     B8F3   FF           4932          .BYTE $FF
     B8F4   C3           4933          .BYTE $C3
     B8F5   BD           4934          .BYTE $BD
     B8F6   B9           4935          .BYTE $B9
     B8F7   A5           4936          .BYTE $A5
     B8F8   9D           4937          .BYTE $9D
     B8F9   BD           4938          .BYTE $BD
     B8FA   C3           4939          .BYTE $C3
     B8FB   FF           4940          .BYTE $FF
     B8FC   55           4941          .BYTE $55
     B8FD   AA           4942          .BYTE $AA
     B8FE   55           4943          .BYTE $55
     B8FF   AA           4944          .BYTE $AA
     B900   FF           4945          .BYTE $FF
     B901   FF           4946          .BYTE $FF
     B902   FF           4947          .BYTE $FF
.MAIN.  Commodore 6502ASM V072882    Page 2-99
   JUPITERLANDER20.asm

Error Addr  Code          Seq   Source statement

     B903   FF           4948          .BYTE $FF
     B904   F9           4949          .BYTE $F9
     B905   AA           4950          .BYTE $AA
     B906   AC           4951          .BYTE $AC
     B907   0B           4952          .BYTE $0B
     B908   14           4953          .BYTE $14
     B909   22           4954          .BYTE $22
     B90A   41           4955          .BYTE $41
     B90B   86           4956          .BYTE $86
     B90C   00           4957          .BYTE $00
     B90D   00           4958          .BYTE $00
     B90E   00           4959          .BYTE $00
     B90F   00           4960          .BYTE $00
     B910   00           4961          .BYTE $00
     B911   00           4962          .BYTE $00
     B912   3F           4963          .BYTE $3F
     B913   3F           4964          .BYTE $3F
     B914   3F           4965          .BYTE $3F
     B915   3F           4966          .BYTE $3F
     B916   00           4967          .BYTE $00
     B917   00           4968          .BYTE $00
     B918   00           4969          .BYTE $00
     B919   00           4970          .BYTE $00
     B91A   00           4971          .BYTE $00
     B91B   00           4972          .BYTE $00
     B91C   3F           4973          .BYTE $3F
     B91D   3F           4974          .BYTE $3F
     B91E   3F           4975          .BYTE $3F
     B91F   3F           4976          .BYTE $3F
     B920   3F           4977          .BYTE $3F
     B921   3F           4978          .BYTE $3F
     B922   3F           4979          .BYTE $3F
     B923   3F           4980          .BYTE $3F
     B924   F0           4981          .BYTE $F0
     B925   C0           4982          .BYTE $C0
     B926   80           4983          .BYTE $80
     B927   87           4984          .BYTE $87
     B928   0F           4985          .BYTE $0F
     B929   1F           4986          .BYTE $1F
     B92A   1F           4987          .BYTE $1F
     B92B   1F           4988          .BYTE $1F
     B92C   7F           4989          .BYTE $7F
     B92D   3F           4990          .BYTE $3F
     B92E   3F           4991          .BYTE $3F
     B92F   BF           4992          .BYTE $BF
     B930   C0           4993          .BYTE $C0
     B931   C1           4994          .BYTE $C1
     B932   C3           4995          .BYTE $C3
     B933   FF           4996          .BYTE $FF
     B934   1F           4997          .BYTE $1F
.MAIN.  Commodore 6502ASM V072882    Page 2-100
   JUPITERLANDER20.asm

Error Addr  Code          Seq   Source statement

     B935   1F           4998          .BYTE $1F
     B936   0F           4999          .BYTE $0F
     B937   87           5000          .BYTE $87
     B938   80           5001          .BYTE $80
     B939   C0           5002          .BYTE $C0
     B93A   F0           5003          .BYTE $F0
     B93B   FF           5004          .BYTE $FF
     B93C   C3           5005          .BYTE $C3
     B93D   C1           5006          .BYTE $C1
     B93E   C0           5007          .BYTE $C0
     B93F   BF           5008          .BYTE $BF
     B940   3F           5009          .BYTE $3F
     B941   3F           5010          .BYTE $3F
     B942   7F           5011          .BYTE $7F
     B943   FF           5012          .BYTE $FF
     B944   00           5013          .BYTE $00
     B945   00           5014          .BYTE $00
     B946   00           5015          .BYTE $00
     B947   00           5016          .BYTE $00
     B948   00           5017          .BYTE $00
     B949   00           5018          .BYTE $00
     B94A   00           5019          .BYTE $00
     B94B   00           5020          .BYTE $00
     B94C   80           5021          .BYTE $80
     B94D   80           5022          .BYTE $80
     B94E   80           5023          .BYTE $80
     B94F   80           5024          .BYTE $80
     B950   80           5025          .BYTE $80
     B951   80           5026          .BYTE $80
     B952   80           5027          .BYTE $80
     B953   80           5028          .BYTE $80
     B954   C0           5029          .BYTE $C0
     B955   C0           5030          .BYTE $C0
     B956   C0           5031          .BYTE $C0
     B957   C0           5032          .BYTE $C0
     B958   C0           5033          .BYTE $C0
     B959   C0           5034          .BYTE $C0
     B95A   C0           5035          .BYTE $C0
     B95B   C0           5036          .BYTE $C0
     B95C   E0           5037          .BYTE $E0
     B95D   E0           5038          .BYTE $E0
     B95E   E0           5039          .BYTE $E0
     B95F   E0           5040          .BYTE $E0
     B960   E0           5041          .BYTE $E0
     B961   E0           5042          .BYTE $E0
     B962   E0           5043          .BYTE $E0
     B963   E0           5044          .BYTE $E0
     B964   F0           5045          .BYTE $F0
     B965   F0           5046          .BYTE $F0
     B966   F0           5047          .BYTE $F0
.MAIN.  Commodore 6502ASM V072882    Page 2-101
   JUPITERLANDER20.asm

Error Addr  Code          Seq   Source statement

     B967   F0           5048          .BYTE $F0
     B968   F0           5049          .BYTE $F0
     B969   F0           5050          .BYTE $F0
     B96A   F0           5051          .BYTE $F0
     B96B   F0           5052          .BYTE $F0
     B96C   F8           5053          .BYTE $F8
     B96D   F8           5054          .BYTE $F8
     B96E   F8           5055          .BYTE $F8
     B96F   F8           5056          .BYTE $F8
     B970   F8           5057          .BYTE $F8
     B971   F8           5058          .BYTE $F8
     B972   F8           5059          .BYTE $F8
     B973   F8           5060          .BYTE $F8
     B974   FC           5061          .BYTE $FC
     B975   FC           5062          .BYTE $FC
     B976   FC           5063          .BYTE $FC
     B977   FC           5064          .BYTE $FC
     B978   FC           5065          .BYTE $FC
     B979   FC           5066          .BYTE $FC
     B97A   FC           5067          .BYTE $FC
     B97B   FC           5068          .BYTE $FC
     B97C   FE           5069          .BYTE $FE
     B97D   FE           5070          .BYTE $FE
     B97E   FE           5071          .BYTE $FE
     B97F   FE           5072          .BYTE $FE
     B980   FE           5073          .BYTE $FE
     B981   FE           5074          .BYTE $FE
     B982   FE           5075          .BYTE $FE
     B983   FE           5076          .BYTE $FE
     B984   00           5077          .BYTE $00
     B985   3F           5078          .BYTE $3F
     B986   3F           5079          .BYTE $3F
     B987   3F           5080          .BYTE $3F
     B988   3F           5081          .BYTE $3F
     B989   3F           5082          .BYTE $3F
     B98A   3F           5083          .BYTE $3F
     B98B   3F           5084          .BYTE $3F
     B98C   3F           5085          .BYTE $3F
     B98D   00           5086          .BYTE $00
     B98E   3F           5087          .BYTE $3F
     B98F   3F           5088          .BYTE $3F
     B990   3F           5089          .BYTE $3F
     B991   3F           5090          .BYTE $3F
     B992   3F           5091          .BYTE $3F
     B993   3F           5092          .BYTE $3F
     B994   3F           5093          .BYTE $3F
     B995   3F           5094          .BYTE $3F
     B996   00           5095          .BYTE $00
     B997   3F           5096          .BYTE $3F
     B998   3F           5097          .BYTE $3F
.MAIN.  Commodore 6502ASM V072882    Page 2-102
   JUPITERLANDER20.asm

Error Addr  Code          Seq   Source statement

     B999   3F           5098          .BYTE $3F
     B99A   3F           5099          .BYTE $3F
     B99B   3F           5100          .BYTE $3F
     B99C   3F           5101          .BYTE $3F
     B99D   3F           5102          .BYTE $3F
     B99E   3F           5103          .BYTE $3F
     B99F   00           5104          .BYTE $00
     B9A0   3F           5105          .BYTE $3F
     B9A1   3F           5106          .BYTE $3F
     B9A2   3F           5107          .BYTE $3F
     B9A3   3F           5108          .BYTE $3F
     B9A4   3F           5109          .BYTE $3F
     B9A5   3F           5110          .BYTE $3F
     B9A6   3F           5111          .BYTE $3F
     B9A7   3F           5112          .BYTE $3F
     B9A8   00           5113          .BYTE $00
     B9A9   3F           5114          .BYTE $3F
     B9AA   3F           5115          .BYTE $3F
     B9AB   3F           5116          .BYTE $3F
     B9AC   3F           5117          .BYTE $3F
     B9AD   3F           5118          .BYTE $3F
     B9AE   3F           5119          .BYTE $3F
     B9AF   3F           5120          .BYTE $3F
     B9B0   3F           5121          .BYTE $3F
     B9B1   00           5122          .BYTE $00
     B9B2   3F           5123          .BYTE $3F
     B9B3   3F           5124          .BYTE $3F
     B9B4   3F           5125          .BYTE $3F
     B9B5   3F           5126          .BYTE $3F
     B9B6   3F           5127          .BYTE $3F
     B9B7   3F           5128          .BYTE $3F
     B9B8   3F           5129          .BYTE $3F
     B9B9   3F           5130          .BYTE $3F
     B9BA   00           5131          .BYTE $00
     B9BB   3F           5132          .BYTE $3F
     B9BC   3F           5133          .BYTE $3F
     B9BD   3F           5134          .BYTE $3F
     B9BE   3F           5135          .BYTE $3F
     B9BF   3F           5136          .BYTE $3F
     B9C0   3F           5137          .BYTE $3F
     B9C1   3F           5138          .BYTE $3F
     B9C2   3F           5139          .BYTE $3F
     B9C3   00           5140          .BYTE $00
                         5141   ;********************************
                         5142   ;
                         5143   ;********************************
     B9C4   80           5144   XXB9C4 .BYTE $80
     B9C5   C0           5145          .BYTE $C0
     B9C6   E0           5146          .BYTE $E0
     B9C7   E0           5147          .BYTE $E0
.MAIN.  Commodore 6502ASM V072882    Page 2-103
   JUPITERLANDER20.asm

Error Addr  Code          Seq   Source statement

     B9C8   F8           5148          .BYTE $F8
     B9C9   FE           5149          .BYTE $FE
     B9CA   FE           5150          .BYTE $FE
     B9CB   FF           5151          .BYTE $FF
     B9CC   80           5152          .BYTE $80
     B9CD   C0           5153          .BYTE $C0
     B9CE   C0           5154          .BYTE $C0
     B9CF   C0           5155          .BYTE $C0
     B9D0   E0           5156          .BYTE $E0
     B9D1   C0           5157          .BYTE $C0
     B9D2   E0           5158          .BYTE $E0
     B9D3   F0           5159          .BYTE $F0
     B9D4   F0           5160          .BYTE $F0
     B9D5   F0           5161          .BYTE $F0
     B9D6   F8           5162          .BYTE $F8
     B9D7   F8           5163          .BYTE $F8
     B9D8   FC           5164          .BYTE $FC
     B9D9   FE           5165          .BYTE $FE
     B9DA   FE           5166          .BYTE $FE
     B9DB   FF           5167          .BYTE $FF
     B9DC   FF           5168          .BYTE $FF
     B9DD   FE           5169          .BYTE $FE
     B9DE   FE           5170          .BYTE $FE
     B9DF   FE           5171          .BYTE $FE
     B9E0   FE           5172          .BYTE $FE
     B9E1   FE           5173          .BYTE $FE
     B9E2   FE           5174          .BYTE $FE
     B9E3   FF           5175          .BYTE $FF
     B9E4   01           5176          .BYTE $01
     B9E5   03           5177          .BYTE $03
     B9E6   07           5178          .BYTE $07
     B9E7   07           5179          .BYTE $07
     B9E8   1F           5180          .BYTE $1F
     B9E9   7F           5181          .BYTE $7F
     B9EA   7F           5182          .BYTE $7F
     B9EB   FF           5183          .BYTE $FF
     B9EC   01           5184          .BYTE $01
     B9ED   03           5185          .BYTE $03
     B9EE   03           5186          .BYTE $03
     B9EF   03           5187          .BYTE $03
     B9F0   07           5188          .BYTE $07
     B9F1   03           5189          .BYTE $03
     B9F2   07           5190          .BYTE $07
     B9F3   0F           5191          .BYTE $0F
     B9F4   0F           5192          .BYTE $0F
     B9F5   0F           5193          .BYTE $0F
     B9F6   1F           5194          .BYTE $1F
     B9F7   1F           5195          .BYTE $1F
     B9F8   3F           5196          .BYTE $3F
     B9F9   7F           5197          .BYTE $7F
.MAIN.  Commodore 6502ASM V072882    Page 2-104
   JUPITERLANDER20.asm

Error Addr  Code          Seq   Source statement

     B9FA   7F           5198          .BYTE $7F
     B9FB   FF           5199          .BYTE $FF
     B9FC   F0           5200          .BYTE $F0
     B9FD   E0           5201          .BYTE $E0
     B9FE   E0           5202          .BYTE $E0
     B9FF   E0           5203          .BYTE $E0
     BA00   E0           5204          .BYTE $E0
     BA01   E0           5205          .BYTE $E0
     BA02   E0           5206          .BYTE $E0
     BA03   F0           5207          .BYTE $F0
     BA04   FF           5208          .BYTE $FF
     BA05   FE           5209          .BYTE $FE
     BA06   FE           5210          .BYTE $FE
     BA07   F8           5211          .BYTE $F8
     BA08   E0           5212          .BYTE $E0
     BA09   E0           5213          .BYTE $E0
     BA0A   C0           5214          .BYTE $C0
     BA0B   80           5215          .BYTE $80
     BA0C   F0           5216          .BYTE $F0
     BA0D   E0           5217          .BYTE $E0
     BA0E   C0           5218          .BYTE $C0
     BA0F   E0           5219          .BYTE $E0
     BA10   C0           5220          .BYTE $C0
     BA11   C0           5221          .BYTE $C0
     BA12   C0           5222          .BYTE $C0
     BA13   80           5223          .BYTE $80
     BA14   FF           5224          .BYTE $FF
     BA15   FE           5225          .BYTE $FE
     BA16   FE           5226          .BYTE $FE
     BA17   FC           5227          .BYTE $FC
     BA18   F8           5228          .BYTE $F8
     BA19   F8           5229          .BYTE $F8
     BA1A   F0           5230          .BYTE $F0
     BA1B   F0           5231          .BYTE $F0
     BA1C   0F           5232          .BYTE $0F
     BA1D   07           5233          .BYTE $07
     BA1E   07           5234          .BYTE $07
     BA1F   07           5235          .BYTE $07
     BA20   07           5236          .BYTE $07
     BA21   07           5237          .BYTE $07
     BA22   07           5238          .BYTE $07
     BA23   0F           5239          .BYTE $0F
     BA24   FF           5240          .BYTE $FF
     BA25   7F           5241          .BYTE $7F
     BA26   7F           5242          .BYTE $7F
     BA27   1F           5243          .BYTE $1F
     BA28   07           5244          .BYTE $07
     BA29   07           5245          .BYTE $07
     BA2A   03           5246          .BYTE $03
     BA2B   01           5247          .BYTE $01
.MAIN.  Commodore 6502ASM V072882    Page 2-105
   JUPITERLANDER20.asm

Error Addr  Code          Seq   Source statement

     BA2C   0F           5248          .BYTE $0F
     BA2D   07           5249          .BYTE $07
     BA2E   03           5250          .BYTE $03
     BA2F   07           5251          .BYTE $07
     BA30   03           5252          .BYTE $03
     BA31   03           5253          .BYTE $03
     BA32   03           5254          .BYTE $03
     BA33   01           5255          .BYTE $01
     BA34   FF           5256          .BYTE $FF
     BA35   7F           5257          .BYTE $7F
     BA36   7F           5258          .BYTE $7F
     BA37   3F           5259          .BYTE $3F
     BA38   1F           5260          .BYTE $1F
     BA39   1F           5261          .BYTE $1F
     BA3A   0F           5262          .BYTE $0F
     BA3B   0F           5263          .BYTE $0F
     BA3C   FF           5264          .BYTE $FF
     BA3D   7F           5265          .BYTE $7F
     BA3E   7F           5266          .BYTE $7F
     BA3F   7F           5267          .BYTE $7F
     BA40   7F           5268          .BYTE $7F
     BA41   7F           5269          .BYTE $7F
     BA42   7F           5270          .BYTE $7F
     BA43   FF           5271          .BYTE $FF
                         5272   ;********************************
                         5273   ;
                         5274   ;********************************
     BA44   FF           5275   XXBA44 .BYTE $FF
     BA45   FF           5276          .BYTE $FF
     BA46   FF           5277          .BYTE $FF
     BA47   77           5278          .BYTE $77
     BA48   76           5279          .BYTE $76
     BA49   75           5280          .BYTE $75
     BA4A   75           5281          .BYTE $75
     BA4B   05           5282          .BYTE $05
     BA4C   FF           5283          .BYTE $FF
     BA4D   FF           5284          .BYTE $FF
     BA4E   FF           5285          .BYTE $FF
     BA4F   77           5286          .BYTE $77
     BA50   B7           5287          .BYTE $B7
     BA51   D7           5288          .BYTE $D7
     BA52   D7           5289          .BYTE $D7
     BA53   D7           5290          .BYTE $D7
     BA54   74           5291          .BYTE $74
     BA55   75           5292          .BYTE $75
     BA56   75           5293          .BYTE $75
     BA57   75           5294          .BYTE $75
     BA58   75           5295          .BYTE $75
     BA59   FF           5296          .BYTE $FF
     BA5A   FF           5297          .BYTE $FF
.MAIN.  Commodore 6502ASM V072882    Page 2-106
   JUPITERLANDER20.asm

Error Addr  Code          Seq   Source statement

     BA5B   FF           5298          .BYTE $FF
     BA5C   17           5299          .BYTE $17
     BA5D   D7           5300          .BYTE $D7
     BA5E   D7           5301          .BYTE $D7
     BA5F   D7           5302          .BYTE $D7
     BA60   D0           5303          .BYTE $D0
     BA61   FF           5304          .BYTE $FF
     BA62   FF           5305          .BYTE $FF
     BA63   FF           5306          .BYTE $FF
                         5307   ;********************************
                         5308   ; MAIN GAME PLAY SCREEN
                         5309   ;********************************
     BA64   01           5310   ZZBA64 .BYTE $01
     BA65   21           5311          .BYTE $21
     BA66   14           5312          .BYTE $14
     BA67   00           5313          .BYTE $00
     BA68   01           5314          .BYTE $01
     BA69   25           5315          .BYTE $25
     BA6A   01           5316          .BYTE $01
     BA6B   27           5317          .BYTE $27
     BA6C   14           5318          .BYTE $14
     BA6D   00           5319          .BYTE $00
     BA6E   01           5320          .BYTE $01
     BA6F   26           5321          .BYTE $26
     BA70   01           5322          .BYTE $01
     BA71   27           5323          .BYTE $27
     BA72   14           5324          .BYTE $14
     BA73   00           5325          .BYTE $00
     BA74   01           5326          .BYTE $01
     BA75   2F           5327          .BYTE $2F
     BA76   01           5328          .BYTE $01
     BA77   22           5329          .BYTE $22
     BA78   14           5330          .BYTE $14
     BA79   00           5331          .BYTE $00
     BA7A   01           5332          .BYTE $01
     BA7B   2F           5333          .BYTE $2F
     BA7C   01           5334          .BYTE $01
     BA7D   23           5335          .BYTE $23
     BA7E   14           5336          .BYTE $14
     BA7F   00           5337          .BYTE $00
     BA80   01           5338          .BYTE $01
     BA81   2F           5339          .BYTE $2F
     BA82   01           5340          .BYTE $01
     BA83   01           5341          .BYTE $01
     BA84   01           5342          .BYTE $01
     BA85   21           5343          .BYTE $21
     BA86   09           5344          .BYTE $09
     BA87   00           5345          .BYTE $00
     BA88   01           5346          .BYTE $01
     BA89   25           5347          .BYTE $25
.MAIN.  Commodore 6502ASM V072882    Page 2-107
   JUPITERLANDER20.asm

Error Addr  Code          Seq   Source statement

     BA8A   04           5348          .BYTE $04
     BA8B   07           5349          .BYTE $07
     BA8C   01           5350          .BYTE $01
     BA8D   20           5351          .BYTE $20
     BA8E   04           5352          .BYTE $04
     BA8F   00           5353          .BYTE $00
     BA90   01           5354          .BYTE $01
     BA91   2F           5355          .BYTE $2F
     BA92   01           5356          .BYTE $01
     BA93   01           5357          .BYTE $01
     BA94   01           5358          .BYTE $01
     BA95   22           5359          .BYTE $22
     BA96   09           5360          .BYTE $09
     BA97   00           5361          .BYTE $00
     BA98   01           5362          .BYTE $01
     BA99   26           5363          .BYTE $26
     BA9A   01           5364          .BYTE $01
     BA9B   01           5365          .BYTE $01
     BA9C   01           5366          .BYTE $01
     BA9D   02           5367          .BYTE $02
     BA9E   01           5368          .BYTE $01
     BA9F   03           5369          .BYTE $03
     BAA0   02           5370          .BYTE $02
     BAA1   01           5371          .BYTE $01
     BAA2   01           5372          .BYTE $01
     BAA3   21           5373          .BYTE $21
     BAA4   02           5374          .BYTE $02
     BAA5   00           5375          .BYTE $00
     BAA6   01           5376          .BYTE $01
     BAA7   25           5377          .BYTE $25
     BAA8   01           5378          .BYTE $01
     BAA9   01           5379          .BYTE $01
     BAAA   02           5380          .BYTE $02
     BAAB   01           5381          .BYTE $01
     BAAC   01           5382          .BYTE $01
     BAAD   20           5383          .BYTE $20
     BAAE   07           5384          .BYTE $07
     BAAF   00           5385          .BYTE $00
     BAB0   01           5386          .BYTE $01
     BAB1   24           5387          .BYTE $24
     BAB2   06           5388          .BYTE $06
     BAB3   01           5389          .BYTE $01
     BAB4   01           5390          .BYTE $01
     BAB5   27           5391          .BYTE $27
     BAB6   02           5392          .BYTE $02
     BAB7   00           5393          .BYTE $00
     BAB8   01           5394          .BYTE $01
     BAB9   2B           5395          .BYTE $2B
     BABA   01           5396          .BYTE $01
     BABB   01           5397          .BYTE $01
.MAIN.  Commodore 6502ASM V072882    Page 2-108
   JUPITERLANDER20.asm

Error Addr  Code          Seq   Source statement

     BABC   03           5398          .BYTE $03
     BABD   01           5399          .BYTE $01
     BABE   01           5400          .BYTE $01
     BABF   20           5401          .BYTE $20
     BAC0   05           5402          .BYTE $05
     BAC1   00           5403          .BYTE $00
     BAC2   01           5404          .BYTE $01
     BAC3   24           5405          .BYTE $24
     BAC4   07           5406          .BYTE $07
     BAC5   01           5407          .BYTE $01
     BAC6   01           5408          .BYTE $01
     BAC7   27           5409          .BYTE $27
     BAC8   02           5410          .BYTE $02
     BAC9   00           5411          .BYTE $00
     BACA   01           5412          .BYTE $01
     BACB   26           5413          .BYTE $26
     BACC   01           5414          .BYTE $01
     BACD   01           5415          .BYTE $01
     BACE   04           5416          .BYTE $04
     BACF   01           5417          .BYTE $01
     BAD0   01           5418          .BYTE $01
     BAD1   21           5419          .BYTE $21
     BAD2   03           5420          .BYTE $03
     BAD3   00           5421          .BYTE $00
     BAD4   01           5422          .BYTE $01
     BAD5   25           5423          .BYTE $25
     BAD6   08           5424          .BYTE $08
     BAD7   01           5425          .BYTE $01
     BAD8   01           5426          .BYTE $01
     BAD9   29           5427          .BYTE $29
     BADA   02           5428          .BYTE $02
     BADB   00           5429          .BYTE $00
     BADC   01           5430          .BYTE $01
     BADD   2F           5431          .BYTE $2F
     BADE   01           5432          .BYTE $01
     BADF   01           5433          .BYTE $01
     BAE0   04           5434          .BYTE $04
     BAE1   01           5435          .BYTE $01
     BAE2   01           5436          .BYTE $01
     BAE3   22           5437          .BYTE $22
     BAE4   03           5438          .BYTE $03
     BAE5   00           5439          .BYTE $00
     BAE6   01           5440          .BYTE $01
     BAE7   26           5441          .BYTE $26
     BAE8   07           5442          .BYTE $07
     BAE9   01           5443          .BYTE $01
     BAEA   01           5444          .BYTE $01
     BAEB   28           5445          .BYTE $28
     BAEC   03           5446          .BYTE $03
     BAED   00           5447          .BYTE $00
.MAIN.  Commodore 6502ASM V072882    Page 2-109
   JUPITERLANDER20.asm

Error Addr  Code          Seq   Source statement

     BAEE   01           5448          .BYTE $01
     BAEF   2F           5449          .BYTE $2F
     BAF0   01           5450          .BYTE $01
     BAF1   01           5451          .BYTE $01
     BAF2   04           5452          .BYTE $04
     BAF3   01           5453          .BYTE $01
     BAF4   01           5454          .BYTE $01
     BAF5   23           5455          .BYTE $23
     BAF6   03           5456          .BYTE $03
     BAF7   00           5457          .BYTE $00
     BAF8   01           5458          .BYTE $01
     BAF9   2F           5459          .BYTE $2F
     BAFA   06           5460          .BYTE $06
     BAFB   01           5461          .BYTE $01
     BAFC   01           5462          .BYTE $01
     BAFD   28           5463          .BYTE $28
     BAFE   03           5464          .BYTE $03
     BAFF   00           5465          .BYTE $00
     BB00   01           5466          .BYTE $01
     BB01   25           5467          .BYTE $25
     BB02   02           5468          .BYTE $02
     BB03   01           5469          .BYTE $01
     BB04   04           5470          .BYTE $04
     BB05   01           5471          .BYTE $01
     BB06   01           5472          .BYTE $01
     BB07   23           5473          .BYTE $23
     BB08   02           5474          .BYTE $02
     BB09   00           5475          .BYTE $00
     BB0A   01           5476          .BYTE $01
     BB0B   25           5477          .BYTE $25
     BB0C   06           5478          .BYTE $06
     BB0D   01           5479          .BYTE $01
     BB0E   01           5480          .BYTE $01
     BB0F   23           5481          .BYTE $23
     BB10   04           5482          .BYTE $04
     BB11   00           5483          .BYTE $00
     BB12   01           5484          .BYTE $01
     BB13   26           5485          .BYTE $26
     BB14   02           5486          .BYTE $02
     BB15   01           5487          .BYTE $01
     BB16   04           5488          .BYTE $04
     BB17   01           5489          .BYTE $01
     BB18   01           5490          .BYTE $01
     BB19   28           5491          .BYTE $28
     BB1A   02           5492          .BYTE $02
     BB1B   00           5493          .BYTE $00
     BB1C   01           5494          .BYTE $01
     BB1D   2B           5495          .BYTE $2B
     BB1E   06           5496          .BYTE $06
     BB1F   01           5497          .BYTE $01
.MAIN.  Commodore 6502ASM V072882    Page 2-110
   JUPITERLANDER20.asm

Error Addr  Code          Seq   Source statement

     BB20   01           5498          .BYTE $01
     BB21   23           5499          .BYTE $23
     BB22   03           5500          .BYTE $03
     BB23   00           5501          .BYTE $00
     BB24   01           5502          .BYTE $01
     BB25   24           5503          .BYTE $24
     BB26   03           5504          .BYTE $03
     BB27   01           5505          .BYTE $01
     BB28   03           5506          .BYTE $03
     BB29   01           5507          .BYTE $01
     BB2A   01           5508          .BYTE $01
     BB2B   28           5509          .BYTE $28
     BB2C   03           5510          .BYTE $03
     BB2D   00           5511          .BYTE $00
     BB2E   01           5512          .BYTE $01
     BB2F   2B           5513          .BYTE $2B
     BB30   07           5514          .BYTE $07
     BB31   01           5515          .BYTE $01
     BB32   03           5516          .BYTE $03
     BB33   07           5517          .BYTE $07
     BB34   04           5518          .BYTE $04
     BB35   01           5519          .BYTE $01
     BB36   02           5520          .BYTE $02
     BB37   01           5521          .BYTE $01
     BB38   01           5522          .BYTE $01
     BB39   23           5523          .BYTE $23
     BB3A   04           5524          .BYTE $04
     BB3B   00           5525          .BYTE $00
     BB3C   01           5526          .BYTE $01
     BB3D   2B           5527          .BYTE $2B
     BB3E   07           5528          .BYTE $07
     BB3F   01           5529          .BYTE $01
     BB40   01           5530          .BYTE $01
     BB41   02           5531          .BYTE $02
     BB42   01           5532          .BYTE $01
     BB43   05           5533          .BYTE $05
     BB44   01           5534          .BYTE $01
     BB45   06           5535          .BYTE $06
     BB46   04           5536          .BYTE $04
     BB47   01           5537          .BYTE $01
     BB48   02           5538          .BYTE $02
     BB49   01           5539          .BYTE $01
     BB4A   01           5540          .BYTE $01
     BB4B   23           5541          .BYTE $23
     BB4C   04           5542          .BYTE $04
     BB4D   00           5543          .BYTE $00
     BB4E   01           5544          .BYTE $01
     BB4F   2B           5545          .BYTE $2B
     BB50   03           5546          .BYTE $03
     BB51   01           5547          .BYTE $01
.MAIN.  Commodore 6502ASM V072882    Page 2-111
   JUPITERLANDER20.asm

Error Addr  Code          Seq   Source statement

     BB52   01           5548          .BYTE $01
     BB53   0C           5549          .BYTE $0C
     BB54   01           5550          .BYTE $01
     BB55   0D           5551          .BYTE $0D
     BB56   09           5552          .BYTE $09
     BB57   01           5553          .BYTE $01
     BB58   02           5554          .BYTE $02
     BB59   01           5555          .BYTE $01
     BB5A   01           5556          .BYTE $01
     BB5B   23           5557          .BYTE $23
     BB5C   04           5558          .BYTE $04
     BB5D   00           5559          .BYTE $00
     BB5E   01           5560          .BYTE $01
     BB5F   26           5561          .BYTE $26
     BB60   03           5562          .BYTE $03
     BB61   01           5563          .BYTE $01
     BB62   01           5564          .BYTE $01
     BB63   0E           5565          .BYTE $0E
     BB64   01           5566          .BYTE $01
     BB65   0F           5567          .BYTE $0F
     BB66   09           5568          .BYTE $09
     BB67   01           5569          .BYTE $01
     BB68   03           5570          .BYTE $03
     BB69   01           5571          .BYTE $01
     BB6A   04           5572          .BYTE $04
     BB6B   07           5573          .BYTE $07
     BB6C   0F           5574          .BYTE $0F
     BB6D   01           5575          .BYTE $01
     BB6E   04           5576          .BYTE $04
     BB6F   01           5577          .BYTE $01
     BB70   01           5578          .BYTE $01
     BB71   02           5579          .BYTE $02
     BB72   01           5580          .BYTE $01
     BB73   04           5581          .BYTE $04
     BB74   10           5582          .BYTE $10
     BB75   01           5583          .BYTE $01
     BB76   16           5584          .BYTE $16
     BB77   01           5585          .BYTE $01
     BB78   00           5586          .BYTE $00
                         5587   ;********************************
                         5588   ; SCREEN ZOOM LEVEL x5
                         5589   ;********************************
     BB79   09           5590   ZZBB79 .BYTE $09
     BB7A   01           5591          .BYTE $01
     BB7B   01           5592          .BYTE $01
     BB7C   22           5593          .BYTE $22
     BB7D   06           5594          .BYTE $06
     BB7E   00           5595          .BYTE $00
     BB7F   01           5596          .BYTE $01
     BB80   2F           5597          .BYTE $2F
.MAIN.  Commodore 6502ASM V072882    Page 2-112
   JUPITERLANDER20.asm

Error Addr  Code          Seq   Source statement

     BB81   05           5598          .BYTE $05
     BB82   01           5599          .BYTE $01
     BB83   09           5600          .BYTE $09
     BB84   01           5601          .BYTE $01
     BB85   01           5602          .BYTE $01
     BB86   23           5603          .BYTE $23
     BB87   06           5604          .BYTE $06
     BB88   00           5605          .BYTE $00
     BB89   01           5606          .BYTE $01
     BB8A   2F           5607          .BYTE $2F
     BB8B   05           5608          .BYTE $05
     BB8C   01           5609          .BYTE $01
     BB8D   09           5610          .BYTE $09
     BB8E   01           5611          .BYTE $01
     BB8F   01           5612          .BYTE $01
     BB90   23           5613          .BYTE $23
     BB91   05           5614          .BYTE $05
     BB92   00           5615          .BYTE $00
     BB93   01           5616          .BYTE $01
     BB94   25           5617          .BYTE $25
     BB95   06           5618          .BYTE $06
     BB96   01           5619          .BYTE $01
     BB97   09           5620          .BYTE $09
     BB98   01           5621          .BYTE $01
     BB99   01           5622          .BYTE $01
     BB9A   2A           5623          .BYTE $2A
     BB9B   05           5624          .BYTE $05
     BB9C   00           5625          .BYTE $00
     BB9D   01           5626          .BYTE $01
     BB9E   2B           5627          .BYTE $2B
     BB9F   06           5628          .BYTE $06
     BBA0   01           5629          .BYTE $01
     BBA1   09           5630          .BYTE $09
     BBA2   01           5631          .BYTE $01
     BBA3   01           5632          .BYTE $01
     BBA4   29           5633          .BYTE $29
     BBA5   05           5634          .BYTE $05
     BBA6   00           5635          .BYTE $00
     BBA7   01           5636          .BYTE $01
     BBA8   26           5637          .BYTE $26
     BBA9   06           5638          .BYTE $06
     BBAA   01           5639          .BYTE $01
     BBAB   08           5640          .BYTE $08
     BBAC   01           5641          .BYTE $01
     BBAD   01           5642          .BYTE $01
     BBAE   28           5643          .BYTE $28
     BBAF   06           5644          .BYTE $06
     BBB0   00           5645          .BYTE $00
     BBB1   01           5646          .BYTE $01
     BBB2   2F           5647          .BYTE $2F
.MAIN.  Commodore 6502ASM V072882    Page 2-113
   JUPITERLANDER20.asm

Error Addr  Code          Seq   Source statement

     BBB3   06           5648          .BYTE $06
     BBB4   01           5649          .BYTE $01
     BBB5   07           5650          .BYTE $07
     BBB6   01           5651          .BYTE $01
     BBB7   01           5652          .BYTE $01
     BBB8   28           5653          .BYTE $28
     BBB9   06           5654          .BYTE $06
     BBBA   00           5655          .BYTE $00
     BBBB   01           5656          .BYTE $01
     BBBC   25           5657          .BYTE $25
     BBBD   07           5658          .BYTE $07
     BBBE   01           5659          .BYTE $01
     BBBF   06           5660          .BYTE $06
     BBC0   01           5661          .BYTE $01
     BBC1   01           5662          .BYTE $01
     BBC2   2A           5663          .BYTE $2A
     BBC3   07           5664          .BYTE $07
     BBC4   00           5665          .BYTE $00
     BBC5   01           5666          .BYTE $01
     BBC6   2B           5667          .BYTE $2B
     BBC7   07           5668          .BYTE $07
     BBC8   01           5669          .BYTE $01
     BBC9   06           5670          .BYTE $06
     BBCA   01           5671          .BYTE $01
     BBCB   01           5672          .BYTE $01
     BBCC   27           5673          .BYTE $27
     BBCD   07           5674          .BYTE $07
     BBCE   00           5675          .BYTE $00
     BBCF   01           5676          .BYTE $01
     BBD0   2D           5677          .BYTE $2D
     BBD1   07           5678          .BYTE $07
     BBD2   01           5679          .BYTE $01
     BBD3   06           5680          .BYTE $06
     BBD4   01           5681          .BYTE $01
     BBD5   01           5682          .BYTE $01
     BBD6   29           5683          .BYTE $29
     BBD7   08           5684          .BYTE $08
     BBD8   00           5685          .BYTE $00
     BBD9   01           5686          .BYTE $01
     BBDA   2F           5687          .BYTE $2F
     BBDB   06           5688          .BYTE $06
     BBDC   01           5689          .BYTE $01
     BBDD   05           5690          .BYTE $05
     BBDE   01           5691          .BYTE $01
     BBDF   01           5692          .BYTE $01
     BBE0   23           5693          .BYTE $23
     BBE1   09           5694          .BYTE $09
     BBE2   00           5695          .BYTE $00
     BBE3   01           5696          .BYTE $01
     BBE4   2F           5697          .BYTE $2F
.MAIN.  Commodore 6502ASM V072882    Page 2-114
   JUPITERLANDER20.asm

Error Addr  Code          Seq   Source statement

     BBE5   06           5698          .BYTE $06
     BBE6   01           5699          .BYTE $01
     BBE7   05           5700          .BYTE $05
     BBE8   01           5701          .BYTE $01
     BBE9   01           5702          .BYTE $01
     BBEA   23           5703          .BYTE $23
     BBEB   08           5704          .BYTE $08
     BBEC   00           5705          .BYTE $00
     BBED   01           5706          .BYTE $01
     BBEE   25           5707          .BYTE $25
     BBEF   07           5708          .BYTE $07
     BBF0   01           5709          .BYTE $01
     BBF1   05           5710          .BYTE $05
     BBF2   01           5711          .BYTE $01
     BBF3   01           5712          .BYTE $01
     BBF4   23           5713          .BYTE $23
     BBF5   08           5714          .BYTE $08
     BBF6   00           5715          .BYTE $00
     BBF7   01           5716          .BYTE $01
     BBF8   26           5717          .BYTE $26
     BBF9   07           5718          .BYTE $07
     BBFA   01           5719          .BYTE $01
     BBFB   06           5720          .BYTE $06
     BBFC   01           5721          .BYTE $01
     BBFD   01           5722          .BYTE $01
     BBFE   21           5723          .BYTE $21
     BBFF   06           5724          .BYTE $06
     BC00   00           5725          .BYTE $00
     BC01   01           5726          .BYTE $01
     BC02   25           5727          .BYTE $25
     BC03   08           5728          .BYTE $08
     BC04   01           5729          .BYTE $01
     BC05   07           5730          .BYTE $07
     BC06   01           5731          .BYTE $01
     BC07   06           5732          .BYTE $06
     BC08   07           5733          .BYTE $07
     BC09   09           5734          .BYTE $09
     BC0A   01           5735          .BYTE $01
     BC0B   16           5736          .BYTE $16
     BC0C   01           5737          .BYTE $01
     BC0D   09           5738          .BYTE $09
     BC0E   01           5739          .BYTE $01
     BC0F   01           5740          .BYTE $01
     BC10   02           5741          .BYTE $02
     BC11   01           5742          .BYTE $01
     BC12   04           5743          .BYTE $04
     BC13   0B           5744          .BYTE $0B
     BC14   01           5745          .BYTE $01
     BC15   12           5746          .BYTE $12
     BC16   01           5747          .BYTE $01
.MAIN.  Commodore 6502ASM V072882    Page 2-115
   JUPITERLANDER20.asm

Error Addr  Code          Seq   Source statement

     BC17   01           5748          .BYTE $01
     BC18   0C           5749          .BYTE $0C
     BC19   01           5750          .BYTE $01
     BC1A   0D           5751          .BYTE $0D
     BC1B   02           5752          .BYTE $02
     BC1C   01           5753          .BYTE $01
     BC1D   12           5754          .BYTE $12
     BC1E   01           5755          .BYTE $01
     BC1F   01           5756          .BYTE $01
     BC20   0E           5757          .BYTE $0E
     BC21   01           5758          .BYTE $01
     BC22   0F           5759          .BYTE $0F
     BC23   02           5760          .BYTE $02
     BC24   01           5761          .BYTE $01
     BC25   16           5762          .BYTE $16
     BC26   01           5763          .BYTE $01
     BC27   16           5764          .BYTE $16
     BC28   01           5765          .BYTE $01
     BC29   00           5766          .BYTE $00
                         5767   ;********************************
                         5768   ; SCREEN ZOOM LEVEL x2
                         5769   ;********************************
     BC2A   16           5770   ZZBC2A .BYTE $16
     BC2B   00           5771          .BYTE $00
     BC2C   16           5772          .BYTE $16
     BC2D   00           5773          .BYTE $00
     BC2E   16           5774          .BYTE $16
     BC2F   00           5775          .BYTE $00
     BC30   16           5776          .BYTE $16
     BC31   00           5777          .BYTE $00
     BC32   16           5778          .BYTE $16
     BC33   00           5779          .BYTE $00
     BC34   16           5780          .BYTE $16
     BC35   00           5781          .BYTE $00
     BC36   16           5782          .BYTE $16
     BC37   00           5783          .BYTE $00
     BC38   16           5784          .BYTE $16
     BC39   00           5785          .BYTE $00
     BC3A   16           5786          .BYTE $16
     BC3B   00           5787          .BYTE $00
     BC3C   16           5788          .BYTE $16
     BC3D   00           5789          .BYTE $00
     BC3E   06           5790          .BYTE $06
     BC3F   00           5791          .BYTE $00
     BC40   01           5792          .BYTE $01
     BC41   25           5793          .BYTE $25
     BC42   08           5794          .BYTE $08
     BC43   07           5795          .BYTE $07
     BC44   01           5796          .BYTE $01
     BC45   20           5797          .BYTE $20
.MAIN.  Commodore 6502ASM V072882    Page 2-116
   JUPITERLANDER20.asm

Error Addr  Code          Seq   Source statement

     BC46   06           5798          .BYTE $06
     BC47   00           5799          .BYTE $00
     BC48   06           5800          .BYTE $06
     BC49   00           5801          .BYTE $00
     BC4A   01           5802          .BYTE $01
     BC4B   26           5803          .BYTE $26
     BC4C   09           5804          .BYTE $09
     BC4D   01           5805          .BYTE $01
     BC4E   01           5806          .BYTE $01
     BC4F   20           5807          .BYTE $20
     BC50   05           5808          .BYTE $05
     BC51   00           5809          .BYTE $00
     BC52   05           5810          .BYTE $05
     BC53   00           5811          .BYTE $00
     BC54   01           5812          .BYTE $01
     BC55   25           5813          .BYTE $25
     BC56   04           5814          .BYTE $04
     BC57   01           5815          .BYTE $01
     BC58   01           5816          .BYTE $01
     BC59   02           5817          .BYTE $02
     BC5A   01           5818          .BYTE $01
     BC5B   03           5819          .BYTE $03
     BC5C   05           5820          .BYTE $05
     BC5D   01           5821          .BYTE $01
     BC5E   01           5822          .BYTE $01
     BC5F   21           5823          .BYTE $21
     BC60   04           5824          .BYTE $04
     BC61   00           5825          .BYTE $00
     BC62   05           5826          .BYTE $05
     BC63   00           5827          .BYTE $00
     BC64   01           5828          .BYTE $01
     BC65   26           5829          .BYTE $26
     BC66   0B           5830          .BYTE $0B
     BC67   01           5831          .BYTE $01
     BC68   01           5832          .BYTE $01
     BC69   27           5833          .BYTE $27
     BC6A   04           5834          .BYTE $04
     BC6B   00           5835          .BYTE $00
     BC6C   04           5836          .BYTE $04
     BC6D   00           5837          .BYTE $00
     BC6E   01           5838          .BYTE $01
     BC6F   24           5839          .BYTE $24
     BC70   0C           5840          .BYTE $0C
     BC71   01           5841          .BYTE $01
     BC72   01           5842          .BYTE $01
     BC73   27           5843          .BYTE $27
     BC74   04           5844          .BYTE $04
     BC75   00           5845          .BYTE $00
     BC76   03           5846          .BYTE $03
     BC77   00           5847          .BYTE $00
.MAIN.  Commodore 6502ASM V072882    Page 2-117
   JUPITERLANDER20.asm

Error Addr  Code          Seq   Source statement

     BC78   01           5848          .BYTE $01
     BC79   24           5849          .BYTE $24
     BC7A   0D           5850          .BYTE $0D
     BC7B   01           5851          .BYTE $01
     BC7C   01           5852          .BYTE $01
     BC7D   22           5853          .BYTE $22
     BC7E   04           5854          .BYTE $04
     BC7F   00           5855          .BYTE $00
     BC80   02           5856          .BYTE $02
     BC81   00           5857          .BYTE $00
     BC82   01           5858          .BYTE $01
     BC83   24           5859          .BYTE $24
     BC84   0E           5860          .BYTE $0E
     BC85   01           5861          .BYTE $01
     BC86   01           5862          .BYTE $01
     BC87   23           5863          .BYTE $23
     BC88   04           5864          .BYTE $04
     BC89   00           5865          .BYTE $00
     BC8A   01           5866          .BYTE $01
     BC8B   00           5867          .BYTE $00
     BC8C   01           5868          .BYTE $01
     BC8D   24           5869          .BYTE $24
     BC8E   05           5870          .BYTE $05
     BC8F   01           5871          .BYTE $01
     BC90   01           5872          .BYTE $01
     BC91   0C           5873          .BYTE $0C
     BC92   01           5874          .BYTE $01
     BC93   0D           5875          .BYTE $0D
     BC94   08           5876          .BYTE $08
     BC95   01           5877          .BYTE $01
     BC96   01           5878          .BYTE $01
     BC97   23           5879          .BYTE $23
     BC98   04           5880          .BYTE $04
     BC99   00           5881          .BYTE $00
     BC9A   01           5882          .BYTE $01
     BC9B   25           5883          .BYTE $25
     BC9C   06           5884          .BYTE $06
     BC9D   01           5885          .BYTE $01
     BC9E   01           5886          .BYTE $01
     BC9F   0E           5887          .BYTE $0E
     BCA0   01           5888          .BYTE $01
     BCA1   0F           5889          .BYTE $0F
     BCA2   08           5890          .BYTE $08
     BCA3   01           5891          .BYTE $01
     BCA4   01           5892          .BYTE $01
     BCA5   2A           5893          .BYTE $2A
     BCA6   04           5894          .BYTE $04
     BCA7   00           5895          .BYTE $00
     BCA8   01           5896          .BYTE $01
     BCA9   26           5897          .BYTE $26
.MAIN.  Commodore 6502ASM V072882    Page 2-118
   JUPITERLANDER20.asm

Error Addr  Code          Seq   Source statement

     BCAA   10           5898          .BYTE $10
     BCAB   01           5899          .BYTE $01
     BCAC   01           5900          .BYTE $01
     BCAD   29           5901          .BYTE $29
     BCAE   04           5902          .BYTE $04
     BCAF   00           5903          .BYTE $00
     BCB0   10           5904          .BYTE $10
     BCB1   01           5905          .BYTE $01
     BCB2   01           5906          .BYTE $01
     BCB3   28           5907          .BYTE $28
     BCB4   05           5908          .BYTE $05
     BCB5   00           5909          .BYTE $00
     BCB6   00           5910          .BYTE $00
                         5911   ;********************************
                         5912   ; SCREEN ZOOM LEVEL x10
                         5913   ;********************************
     BCB7   01           5914   ZZBCB7 .BYTE $01
     BCB8   25           5915          .BYTE $25
     BCB9   0B           5916          .BYTE $0B
     BCBA   01           5917          .BYTE $01
     BCBB   01           5918          .BYTE $01
     BCBC   21           5919          .BYTE $21
     BCBD   06           5920          .BYTE $06
     BCBE   00           5921          .BYTE $00
     BCBF   01           5922          .BYTE $01
     BCC0   25           5923          .BYTE $25
     BCC1   02           5924          .BYTE $02
     BCC2   01           5925          .BYTE $01
     BCC3   01           5926          .BYTE $01
     BCC4   26           5927          .BYTE $26
     BCC5   0B           5928          .BYTE $0B
     BCC6   01           5929          .BYTE $01
     BCC7   01           5930          .BYTE $01
     BCC8   27           5931          .BYTE $27
     BCC9   06           5932          .BYTE $06
     BCCA   00           5933          .BYTE $00
     BCCB   01           5934          .BYTE $01
     BCCC   26           5935          .BYTE $26
     BCCD   02           5936          .BYTE $02
     BCCE   01           5937          .BYTE $01
     BCCF   0C           5938          .BYTE $0C
     BCD0   01           5939          .BYTE $01
     BCD1   01           5940          .BYTE $01
     BCD2   22           5941          .BYTE $22
     BCD3   06           5942          .BYTE $06
     BCD4   00           5943          .BYTE $00
     BCD5   01           5944          .BYTE $01
     BCD6   2F           5945          .BYTE $2F
     BCD7   02           5946          .BYTE $02
     BCD8   01           5947          .BYTE $01
.MAIN.  Commodore 6502ASM V072882    Page 2-119
   JUPITERLANDER20.asm

Error Addr  Code          Seq   Source statement

     BCD9   04           5948          .BYTE $04
     BCDA   01           5949          .BYTE $01
     BCDB   01           5950          .BYTE $01
     BCDC   0C           5951          .BYTE $0C
     BCDD   01           5952          .BYTE $01
     BCDE   0D           5953          .BYTE $0D
     BCDF   06           5954          .BYTE $06
     BCE0   01           5955          .BYTE $01
     BCE1   01           5956          .BYTE $01
     BCE2   23           5957          .BYTE $23
     BCE3   06           5958          .BYTE $06
     BCE4   00           5959          .BYTE $00
     BCE5   01           5960          .BYTE $01
     BCE6   2F           5961          .BYTE $2F
     BCE7   02           5962          .BYTE $02
     BCE8   01           5963          .BYTE $01
     BCE9   04           5964          .BYTE $04
     BCEA   01           5965          .BYTE $01
     BCEB   01           5966          .BYTE $01
     BCEC   0E           5967          .BYTE $0E
     BCED   01           5968          .BYTE $01
     BCEE   0F           5969          .BYTE $0F
     BCEF   06           5970          .BYTE $06
     BCF0   01           5971          .BYTE $01
     BCF1   01           5972          .BYTE $01
     BCF2   23           5973          .BYTE $23
     BCF3   05           5974          .BYTE $05
     BCF4   00           5975          .BYTE $00
     BCF5   01           5976          .BYTE $01
     BCF6   25           5977          .BYTE $25
     BCF7   03           5978          .BYTE $03
     BCF8   01           5979          .BYTE $01
     BCF9   0C           5980          .BYTE $0C
     BCFA   01           5981          .BYTE $01
     BCFB   01           5982          .BYTE $01
     BCFC   23           5983          .BYTE $23
     BCFD   05           5984          .BYTE $05
     BCFE   00           5985          .BYTE $00
     BCFF   01           5986          .BYTE $01
     BD00   2B           5987          .BYTE $2B
     BD01   03           5988          .BYTE $03
     BD02   01           5989          .BYTE $01
     BD03   0C           5990          .BYTE $0C
     BD04   01           5991          .BYTE $01
     BD05   01           5992          .BYTE $01
     BD06   2A           5993          .BYTE $2A
     BD07   05           5994          .BYTE $05
     BD08   00           5995          .BYTE $00
     BD09   01           5996          .BYTE $01
     BD0A   2B           5997          .BYTE $2B
.MAIN.  Commodore 6502ASM V072882    Page 2-120
   JUPITERLANDER20.asm

Error Addr  Code          Seq   Source statement

     BD0B   03           5998          .BYTE $03
     BD0C   01           5999          .BYTE $01
     BD0D   0C           6000          .BYTE $0C
     BD0E   01           6001          .BYTE $01
     BD0F   01           6002          .BYTE $01
     BD10   29           6003          .BYTE $29
     BD11   05           6004          .BYTE $05
     BD12   00           6005          .BYTE $00
     BD13   01           6006          .BYTE $01
     BD14   26           6007          .BYTE $26
     BD15   03           6008          .BYTE $03
     BD16   01           6009          .BYTE $01
     BD17   0B           6010          .BYTE $0B
     BD18   01           6011          .BYTE $01
     BD19   01           6012          .BYTE $01
     BD1A   28           6013          .BYTE $28
     BD1B   06           6014          .BYTE $06
     BD1C   00           6015          .BYTE $00
     BD1D   01           6016          .BYTE $01
     BD1E   2F           6017          .BYTE $2F
     BD1F   03           6018          .BYTE $03
     BD20   01           6019          .BYTE $01
     BD21   0A           6020          .BYTE $0A
     BD22   01           6021          .BYTE $01
     BD23   01           6022          .BYTE $01
     BD24   28           6023          .BYTE $28
     BD25   07           6024          .BYTE $07
     BD26   00           6025          .BYTE $00
     BD27   01           6026          .BYTE $01
     BD28   2F           6027          .BYTE $2F
     BD29   03           6028          .BYTE $03
     BD2A   01           6029          .BYTE $01
     BD2B   09           6030          .BYTE $09
     BD2C   01           6031          .BYTE $01
     BD2D   01           6032          .BYTE $01
     BD2E   28           6033          .BYTE $28
     BD2F   07           6034          .BYTE $07
     BD30   00           6035          .BYTE $00
     BD31   01           6036          .BYTE $01
     BD32   25           6037          .BYTE $25
     BD33   04           6038          .BYTE $04
     BD34   01           6039          .BYTE $01
     BD35   08           6040          .BYTE $08
     BD36   01           6041          .BYTE $01
     BD37   01           6042          .BYTE $01
     BD38   2A           6043          .BYTE $2A
     BD39   08           6044          .BYTE $08
     BD3A   00           6045          .BYTE $00
     BD3B   01           6046          .BYTE $01
     BD3C   26           6047          .BYTE $26
.MAIN.  Commodore 6502ASM V072882    Page 2-121
   JUPITERLANDER20.asm

Error Addr  Code          Seq   Source statement

     BD3D   04           6048          .BYTE $04
     BD3E   01           6049          .BYTE $01
     BD3F   08           6050          .BYTE $08
     BD40   01           6051          .BYTE $01
     BD41   01           6052          .BYTE $01
     BD42   29           6053          .BYTE $29
     BD43   07           6054          .BYTE $07
     BD44   00           6055          .BYTE $00
     BD45   01           6056          .BYTE $01
     BD46   25           6057          .BYTE $25
     BD47   05           6058          .BYTE $05
     BD48   01           6059          .BYTE $01
     BD49   07           6060          .BYTE $07
     BD4A   01           6061          .BYTE $01
     BD4B   01           6062          .BYTE $01
     BD4C   23           6063          .BYTE $23
     BD4D   08           6064          .BYTE $08
     BD4E   00           6065          .BYTE $00
     BD4F   01           6066          .BYTE $01
     BD50   26           6067          .BYTE $26
     BD51   05           6068          .BYTE $05
     BD52   01           6069          .BYTE $01
     BD53   07           6070          .BYTE $07
     BD54   01           6071          .BYTE $01
     BD55   01           6072          .BYTE $01
     BD56   23           6073          .BYTE $23
     BD57   07           6074          .BYTE $07
     BD58   00           6075          .BYTE $00
     BD59   01           6076          .BYTE $01
     BD5A   24           6077          .BYTE $24
     BD5B   06           6078          .BYTE $06
     BD5C   01           6079          .BYTE $01
     BD5D   07           6080          .BYTE $07
     BD5E   01           6081          .BYTE $01
     BD5F   01           6082          .BYTE $01
     BD60   23           6083          .BYTE $23
     BD61   06           6084          .BYTE $06
     BD62   00           6085          .BYTE $00
     BD63   01           6086          .BYTE $01
     BD64   24           6087          .BYTE $24
     BD65   07           6088          .BYTE $07
     BD66   01           6089          .BYTE $01
     BD67   08           6090          .BYTE $08
     BD68   01           6091          .BYTE $01
     BD69   06           6092          .BYTE $06
     BD6A   07           6093          .BYTE $07
     BD6B   08           6094          .BYTE $08
     BD6C   01           6095          .BYTE $01
     BD6D   16           6096          .BYTE $16
     BD6E   01           6097          .BYTE $01
.MAIN.  Commodore 6502ASM V072882    Page 2-122
   JUPITERLANDER20.asm

Error Addr  Code          Seq   Source statement

     BD6F   09           6098          .BYTE $09
     BD70   01           6099          .BYTE $01
     BD71   01           6100          .BYTE $01
     BD72   02           6101          .BYTE $02
     BD73   01           6102          .BYTE $01
     BD74   01           6103          .BYTE $01
     BD75   01           6104          .BYTE $01
     BD76   05           6105          .BYTE $05
     BD77   01           6106          .BYTE $01
     BD78   06           6107          .BYTE $06
     BD79   09           6108          .BYTE $09
     BD7A   01           6109          .BYTE $01
     BD7B   16           6110          .BYTE $16
     BD7C   01           6111          .BYTE $01
     BD7D   16           6112          .BYTE $16
     BD7E   01           6113          .BYTE $01
     BD7F   00           6114   YYBD7F .BYTE $00
                         6115   ;********************************
                         6116   ;
                         6117   ;********************************
     BD80   00           6118   ZZBD80 .BYTE $00
     BD81   00           6119          .BYTE $00
     BD82   00           6120          .BYTE $00
     BD83   00           6121          .BYTE $00
     BD84   00           6122          .BYTE $00
     BD85   00           6123          .BYTE $00
     BD86   01           6124          .BYTE $01
     BD87   02           6125          .BYTE $02
     BD88   00           6126          .BYTE $00
     BD89   00           6127          .BYTE $00
     BD8A   00           6128          .BYTE $00
     BD8B   00           6129          .BYTE $00
     BD8C   00           6130          .BYTE $00
     BD8D   00           6131          .BYTE $00
     BD8E   80           6132          .BYTE $80
     BD8F   40           6133          .BYTE $40
     BD90   02           6134          .BYTE $02
     BD91   01           6135          .BYTE $01
     BD92   00           6136          .BYTE $00
     BD93   00           6137          .BYTE $00
     BD94   00           6138          .BYTE $00
     BD95   00           6139          .BYTE $00
     BD96   00           6140          .BYTE $00
     BD97   00           6141          .BYTE $00
     BD98   40           6142          .BYTE $40
     BD99   80           6143          .BYTE $80
     BD9A   00           6144          .BYTE $00
     BD9B   00           6145          .BYTE $00
     BD9C   00           6146          .BYTE $00
     BD9D   00           6147          .BYTE $00
.MAIN.  Commodore 6502ASM V072882    Page 2-123
   JUPITERLANDER20.asm

Error Addr  Code          Seq   Source statement

     BD9E   00           6148          .BYTE $00
     BD9F   00           6149          .BYTE $00
     BDA0   00           6150          .BYTE $00
     BDA1   00           6151          .BYTE $00
     BDA2   00           6152          .BYTE $00
     BDA3   00           6153          .BYTE $00
     BDA4   03           6154          .BYTE $03
     BDA5   07           6155          .BYTE $07
     BDA6   0E           6156          .BYTE $0E
     BDA7   0C           6157          .BYTE $0C
     BDA8   00           6158          .BYTE $00
     BDA9   00           6159          .BYTE $00
     BDAA   00           6160          .BYTE $00
     BDAB   00           6161          .BYTE $00
     BDAC   C0           6162          .BYTE $C0
     BDAD   E0           6163          .BYTE $E0
     BDAE   70           6164          .BYTE $70
     BDAF   30           6165          .BYTE $30
     BDB0   0C           6166          .BYTE $0C
     BDB1   0E           6167          .BYTE $0E
     BDB2   07           6168          .BYTE $07
     BDB3   03           6169          .BYTE $03
     BDB4   00           6170          .BYTE $00
     BDB5   00           6171          .BYTE $00
     BDB6   00           6172          .BYTE $00
     BDB7   00           6173          .BYTE $00
     BDB8   30           6174          .BYTE $30
     BDB9   70           6175          .BYTE $70
     BDBA   E0           6176          .BYTE $E0
     BDBB   C0           6177          .BYTE $C0
     BDBC   00           6178          .BYTE $00
     BDBD   00           6179          .BYTE $00
     BDBE   00           6180          .BYTE $00
     BDBF   00           6181          .BYTE $00
     BDC0   00           6182          .BYTE $00
     BDC1   00           6183          .BYTE $00
     BDC2   03           6184          .BYTE $03
     BDC3   0F           6185          .BYTE $0F
     BDC4   1F           6186          .BYTE $1F
     BDC5   1C           6187          .BYTE $1C
     BDC6   38           6188          .BYTE $38
     BDC7   39           6189          .BYTE $39
     BDC8   00           6190          .BYTE $00
     BDC9   00           6191          .BYTE $00
     BDCA   C0           6192          .BYTE $C0
     BDCB   F0           6193          .BYTE $F0
     BDCC   F8           6194          .BYTE $F8
     BDCD   38           6195          .BYTE $38
     BDCE   1C           6196          .BYTE $1C
     BDCF   9C           6197          .BYTE $9C
.MAIN.  Commodore 6502ASM V072882    Page 2-124
   JUPITERLANDER20.asm

Error Addr  Code          Seq   Source statement

     BDD0   39           6198          .BYTE $39
     BDD1   38           6199          .BYTE $38
     BDD2   1C           6200          .BYTE $1C
     BDD3   1F           6201          .BYTE $1F
     BDD4   0F           6202          .BYTE $0F
     BDD5   03           6203          .BYTE $03
     BDD6   00           6204          .BYTE $00
     BDD7   00           6205          .BYTE $00
     BDD8   9C           6206          .BYTE $9C
     BDD9   1C           6207          .BYTE $1C
     BDDA   38           6208          .BYTE $38
     BDDB   F8           6209          .BYTE $F8
     BDDC   F0           6210          .BYTE $F0
     BDDD   C0           6211          .BYTE $C0
     BDDE   00           6212          .BYTE $00
     BDDF   00           6213          .BYTE $00
     BDE0   07           6214          .BYTE $07
     BDE1   1F           6215          .BYTE $1F
     BDE2   3F           6216          .BYTE $3F
     BDE3   7C           6217          .BYTE $7C
     BDE4   7B           6218          .BYTE $7B
     BDE5   F7           6219          .BYTE $F7
     BDE6   EE           6220          .BYTE $EE
     BDE7   EC           6221          .BYTE $EC
     BDE8   E0           6222          .BYTE $E0
     BDE9   F8           6223          .BYTE $F8
     BDEA   FC           6224          .BYTE $FC
     BDEB   3E           6225          .BYTE $3E
     BDEC   DE           6226          .BYTE $DE
     BDED   EF           6227          .BYTE $EF
     BDEE   77           6228          .BYTE $77
     BDEF   37           6229          .BYTE $37
     BDF0   EC           6230          .BYTE $EC
     BDF1   EE           6231          .BYTE $EE
     BDF2   F7           6232          .BYTE $F7
     BDF3   7B           6233          .BYTE $7B
     BDF4   7C           6234          .BYTE $7C
     BDF5   3F           6235          .BYTE $3F
     BDF6   1F           6236          .BYTE $1F
     BDF7   07           6237          .BYTE $07
     BDF8   37           6238          .BYTE $37
     BDF9   77           6239          .BYTE $77
     BDFA   EF           6240          .BYTE $EF
     BDFB   DE           6241          .BYTE $DE
     BDFC   3E           6242          .BYTE $3E
     BDFD   FC           6243          .BYTE $FC
     BDFE   F8           6244          .BYTE $F8
     BDFF   E0           6245          .BYTE $E0
                         6246   ;********************************
                         6247   ;
.MAIN.  Commodore 6502ASM V072882    Page 2-125
   JUPITERLANDER20.asm

Error Addr  Code          Seq   Source statement

                         6248   ;********************************
     BE00   00           6249   ZZBE00 .BYTE $00
     BE01   00           6250          .BYTE $00
     BE02   00           6251          .BYTE $00
     BE03   00           6252          .BYTE $00
     BE04   00           6253          .BYTE $00
     BE05   00           6254          .BYTE $00
     BE06   00           6255          .BYTE $00
     BE07   00           6256          .BYTE $00
     BE08   00           6257          .BYTE $00
     BE09   00           6258          .BYTE $00
     BE0A   00           6259          .BYTE $00
     BE0B   00           6260          .BYTE $00
     BE0C   00           6261          .BYTE $00
     BE0D   00           6262          .BYTE $00
     BE0E   00           6263          .BYTE $00
     BE0F   00           6264          .BYTE $00
     BE10   00           6265          .BYTE $00
     BE11   00           6266          .BYTE $00
     BE12   00           6267          .BYTE $00
     BE13   00           6268          .BYTE $00
     BE14   00           6269          .BYTE $00
     BE15   00           6270          .BYTE $00
     BE16   00           6271          .BYTE $00
     BE17   00           6272          .BYTE $00
     BE18   00           6273          .BYTE $00
     BE19   00           6274          .BYTE $00
     BE1A   00           6275          .BYTE $00
     BE1B   00           6276          .BYTE $00
     BE1C   00           6277          .BYTE $00
     BE1D   00           6278          .BYTE $00
     BE1E   00           6279          .BYTE $00
     BE1F   00           6280          .BYTE $00
     BE20   00           6281          .BYTE $00
     BE21   00           6282          .BYTE $00
     BE22   00           6283          .BYTE $00
     BE23   00           6284          .BYTE $00
     BE24   00           6285          .BYTE $00
     BE25   00           6286          .BYTE $00
     BE26   00           6287          .BYTE $00
     BE27   00           6288          .BYTE $00
     BE28   00           6289          .BYTE $00
     BE29   00           6290          .BYTE $00
     BE2A   00           6291          .BYTE $00
     BE2B   00           6292          .BYTE $00
     BE2C   03           6293          .BYTE $03
     BE2D   07           6294          .BYTE $07
     BE2E   0F           6295          .BYTE $0F
     BE2F   0E           6296          .BYTE $0E
     BE30   00           6297          .BYTE $00
.MAIN.  Commodore 6502ASM V072882    Page 2-126
   JUPITERLANDER20.asm

Error Addr  Code          Seq   Source statement

     BE31   00           6298          .BYTE $00
     BE32   00           6299          .BYTE $00
     BE33   00           6300          .BYTE $00
     BE34   C0           6301          .BYTE $C0
     BE35   E0           6302          .BYTE $E0
     BE36   F0           6303          .BYTE $F0
     BE37   70           6304          .BYTE $70
     BE38   00           6305          .BYTE $00
     BE39   00           6306          .BYTE $00
     BE3A   00           6307          .BYTE $00
     BE3B   00           6308          .BYTE $00
     BE3C   00           6309          .BYTE $00
     BE3D   00           6310          .BYTE $00
     BE3E   00           6311          .BYTE $00
     BE3F   00           6312          .BYTE $00
     BE40   00           6313          .BYTE $00
     BE41   00           6314          .BYTE $00
     BE42   00           6315          .BYTE $00
     BE43   00           6316          .BYTE $00
     BE44   00           6317          .BYTE $00
     BE45   00           6318          .BYTE $00
     BE46   00           6319          .BYTE $00
     BE47   00           6320          .BYTE $00
     BE48   0E           6321          .BYTE $0E
     BE49   0F           6322          .BYTE $0F
     BE4A   07           6323          .BYTE $07
     BE4B   03           6324          .BYTE $03
     BE4C   00           6325          .BYTE $00
     BE4D   00           6326          .BYTE $00
     BE4E   00           6327          .BYTE $00
     BE4F   00           6328          .BYTE $00
     BE50   70           6329          .BYTE $70
     BE51   F0           6330          .BYTE $F0
     BE52   E0           6331          .BYTE $E0
     BE53   C0           6332          .BYTE $C0
     BE54   00           6333          .BYTE $00
     BE55   00           6334          .BYTE $00
     BE56   00           6335          .BYTE $00
     BE57   00           6336          .BYTE $00
     BE58   00           6337          .BYTE $00
     BE59   00           6338          .BYTE $00
     BE5A   00           6339          .BYTE $00
     BE5B   00           6340          .BYTE $00
     BE5C   00           6341          .BYTE $00
     BE5D   00           6342          .BYTE $00
     BE5E   00           6343          .BYTE $00
     BE5F   00           6344          .BYTE $00
     BE60   00           6345          .BYTE $00
     BE61   00           6346          .BYTE $00
     BE62   00           6347          .BYTE $00
.MAIN.  Commodore 6502ASM V072882    Page 2-127
   JUPITERLANDER20.asm

Error Addr  Code          Seq   Source statement

     BE63   00           6348          .BYTE $00
     BE64   00           6349          .BYTE $00
     BE65   00           6350          .BYTE $00
     BE66   00           6351          .BYTE $00
     BE67   00           6352          .BYTE $00
     BE68   00           6353          .BYTE $00
     BE69   00           6354          .BYTE $00
     BE6A   00           6355          .BYTE $00
     BE6B   00           6356          .BYTE $00
     BE6C   00           6357          .BYTE $00
     BE6D   00           6358          .BYTE $00
     BE6E   00           6359          .BYTE $00
     BE6F   00           6360          .BYTE $00
     BE70   00           6361          .BYTE $00
     BE71   00           6362          .BYTE $00
     BE72   00           6363          .BYTE $00
     BE73   00           6364          .BYTE $00
     BE74   00           6365          .BYTE $00
     BE75   00           6366          .BYTE $00
     BE76   00           6367          .BYTE $00
     BE77   00           6368          .BYTE $00
     BE78   00           6369          .BYTE $00
     BE79   00           6370          .BYTE $00
     BE7A   00           6371          .BYTE $00
     BE7B   00           6372          .BYTE $00
     BE7C   00           6373          .BYTE $00
     BE7D   00           6374          .BYTE $00
     BE7E   00           6375          .BYTE $00
     BE7F   00           6376          .BYTE $00
     BE80   00           6377          .BYTE $00
     BE81   00           6378          .BYTE $00
     BE82   00           6379          .BYTE $00
     BE83   00           6380          .BYTE $00
     BE84   00           6381          .BYTE $00
     BE85   00           6382          .BYTE $00
     BE86   00           6383          .BYTE $00
     BE87   00           6384          .BYTE $00
     BE88   00           6385          .BYTE $00
     BE89   00           6386          .BYTE $00
     BE8A   00           6387          .BYTE $00
     BE8B   00           6388          .BYTE $00
     BE8C   00           6389          .BYTE $00
     BE8D   00           6390          .BYTE $00
     BE8E   00           6391          .BYTE $00
     BE8F   00           6392          .BYTE $00
     BE90   00           6393          .BYTE $00
     BE91   00           6394          .BYTE $00
     BE92   00           6395          .BYTE $00
     BE93   00           6396          .BYTE $00
     BE94   00           6397          .BYTE $00
.MAIN.  Commodore 6502ASM V072882    Page 2-128
   JUPITERLANDER20.asm

Error Addr  Code          Seq   Source statement

     BE95   00           6398          .BYTE $00
     BE96   00           6399          .BYTE $00
     BE97   00           6400          .BYTE $00
     BE98   00           6401          .BYTE $00
     BE99   00           6402          .BYTE $00
     BE9A   00           6403          .BYTE $00
     BE9B   00           6404          .BYTE $00
     BE9C   00           6405          .BYTE $00
     BE9D   00           6406          .BYTE $00
     BE9E   00           6407          .BYTE $00
     BE9F   00           6408          .BYTE $00
     BEA0   00           6409          .BYTE $00
     BEA1   00           6410          .BYTE $00
     BEA2   00           6411          .BYTE $00
     BEA3   00           6412          .BYTE $00
     BEA4   00           6413          .BYTE $00
     BEA5   00           6414          .BYTE $00
     BEA6   00           6415          .BYTE $00
     BEA7   00           6416          .BYTE $00
     BEA8   00           6417          .BYTE $00
     BEA9   03           6418          .BYTE $03
     BEAA   0F           6419          .BYTE $0F
     BEAB   1F           6420          .BYTE $1F
     BEAC   3C           6421          .BYTE $3C
     BEAD   3B           6422          .BYTE $3B
     BEAE   77           6423          .BYTE $77
     BEAF   77           6424          .BYTE $77
     BEB0   00           6425          .BYTE $00
     BEB1   C0           6426          .BYTE $C0
     BEB2   F0           6427          .BYTE $F0
     BEB3   F8           6428          .BYTE $F8
     BEB4   3C           6429          .BYTE $3C
     BEB5   DC           6430          .BYTE $DC
     BEB6   EE           6431          .BYTE $EE
     BEB7   EE           6432          .BYTE $EE
     BEB8   00           6433          .BYTE $00
     BEB9   00           6434          .BYTE $00
     BEBA   00           6435          .BYTE $00
     BEBB   00           6436          .BYTE $00
     BEBC   00           6437          .BYTE $00
     BEBD   00           6438          .BYTE $00
     BEBE   00           6439          .BYTE $00
     BEBF   00           6440          .BYTE $00
     BEC0   00           6441          .BYTE $00
     BEC1   00           6442          .BYTE $00
     BEC2   00           6443          .BYTE $00
     BEC3   00           6444          .BYTE $00
     BEC4   00           6445          .BYTE $00
     BEC5   00           6446          .BYTE $00
     BEC6   00           6447          .BYTE $00
.MAIN.  Commodore 6502ASM V072882    Page 2-129
   JUPITERLANDER20.asm

Error Addr  Code          Seq   Source statement

     BEC7   00           6448          .BYTE $00
     BEC8   77           6449          .BYTE $77
     BEC9   77           6450          .BYTE $77
     BECA   3B           6451          .BYTE $3B
     BECB   3C           6452          .BYTE $3C
     BECC   1F           6453          .BYTE $1F
     BECD   0F           6454          .BYTE $0F
     BECE   03           6455          .BYTE $03
     BECF   00           6456          .BYTE $00
     BED0   EE           6457          .BYTE $EE
     BED1   EE           6458          .BYTE $EE
     BED2   DC           6459          .BYTE $DC
     BED3   3C           6460          .BYTE $3C
     BED4   F8           6461          .BYTE $F8
     BED5   F0           6462          .BYTE $F0
     BED6   C0           6463          .BYTE $C0
     BED7   00           6464          .BYTE $00
     BED8   00           6465          .BYTE $00
     BED9   00           6466          .BYTE $00
     BEDA   00           6467          .BYTE $00
     BEDB   00           6468          .BYTE $00
     BEDC   00           6469          .BYTE $00
     BEDD   00           6470          .BYTE $00
     BEDE   00           6471          .BYTE $00
     BEDF   00           6472          .BYTE $00
     BEE0   00           6473          .BYTE $00
     BEE1   00           6474          .BYTE $00
     BEE2   00           6475          .BYTE $00
     BEE3   00           6476          .BYTE $00
     BEE4   00           6477          .BYTE $00
     BEE5   00           6478          .BYTE $00
     BEE6   00           6479          .BYTE $00
     BEE7   00           6480          .BYTE $00
     BEE8   00           6481          .BYTE $00
     BEE9   00           6482          .BYTE $00
     BEEA   00           6483          .BYTE $00
     BEEB   00           6484          .BYTE $00
     BEEC   00           6485          .BYTE $00
     BEED   00           6486          .BYTE $00
     BEEE   00           6487          .BYTE $00
     BEEF   00           6488          .BYTE $00
     BEF0   00           6489          .BYTE $00
     BEF1   00           6490          .BYTE $00
     BEF2   00           6491          .BYTE $00
     BEF3   00           6492          .BYTE $00
     BEF4   00           6493          .BYTE $00
     BEF5   00           6494          .BYTE $00
     BEF6   00           6495          .BYTE $00
     BEF7   00           6496          .BYTE $00
     BEF8   00           6497          .BYTE $00
.MAIN.  Commodore 6502ASM V072882    Page 2-130
   JUPITERLANDER20.asm

Error Addr  Code          Seq   Source statement

     BEF9   00           6498          .BYTE $00
     BEFA   00           6499          .BYTE $00
     BEFB   00           6500          .BYTE $00
     BEFC   00           6501          .BYTE $00
     BEFD   00           6502          .BYTE $00
     BEFE   00           6503          .BYTE $00
     BEFF   00           6504          .BYTE $00
     BF00   00           6505          .BYTE $00
     BF01   00           6506          .BYTE $00
     BF02   00           6507          .BYTE $00
     BF03   00           6508          .BYTE $00
     BF04   00           6509          .BYTE $00
     BF05   00           6510          .BYTE $00
     BF06   00           6511          .BYTE $00
     BF07   00           6512          .BYTE $00
     BF08   00           6513          .BYTE $00
     BF09   00           6514          .BYTE $00
     BF0A   00           6515          .BYTE $00
     BF0B   00           6516          .BYTE $00
     BF0C   00           6517          .BYTE $00
     BF0D   00           6518          .BYTE $00
     BF0E   07           6519          .BYTE $07
     BF0F   1F           6520          .BYTE $1F
     BF10   00           6521          .BYTE $00
     BF11   00           6522          .BYTE $00
     BF12   00           6523          .BYTE $00
     BF13   00           6524          .BYTE $00
     BF14   00           6525          .BYTE $00
     BF15   00           6526          .BYTE $00
     BF16   E0           6527          .BYTE $E0
     BF17   F8           6528          .BYTE $F8
     BF18   00           6529          .BYTE $00
     BF19   00           6530          .BYTE $00
     BF1A   00           6531          .BYTE $00
     BF1B   00           6532          .BYTE $00
     BF1C   00           6533          .BYTE $00
     BF1D   00           6534          .BYTE $00
     BF1E   00           6535          .BYTE $00
     BF1F   00           6536          .BYTE $00
     BF20   00           6537          .BYTE $00
     BF21   00           6538          .BYTE $00
     BF22   00           6539          .BYTE $00
     BF23   01           6540          .BYTE $01
     BF24   01           6541          .BYTE $01
     BF25   03           6542          .BYTE $03
     BF26   03           6543          .BYTE $03
     BF27   03           6544          .BYTE $03
     BF28   7F           6545          .BYTE $7F
     BF29   FF           6546          .BYTE $FF
     BF2A   FF           6547          .BYTE $FF
.MAIN.  Commodore 6502ASM V072882    Page 2-131
   JUPITERLANDER20.asm

Error Addr  Code          Seq   Source statement

     BF2B   FF           6548          .BYTE $FF
     BF2C   FC           6549          .BYTE $FC
     BF2D   F8           6550          .BYTE $F8
     BF2E   F0           6551          .BYTE $F0
     BF2F   F0           6552          .BYTE $F0
     BF30   FE           6553          .BYTE $FE
     BF31   FF           6554          .BYTE $FF
     BF32   FF           6555          .BYTE $FF
     BF33   FF           6556          .BYTE $FF
     BF34   3F           6557          .BYTE $3F
     BF35   1F           6558          .BYTE $1F
     BF36   0F           6559          .BYTE $0F
     BF37   0F           6560          .BYTE $0F
     BF38   00           6561          .BYTE $00
     BF39   00           6562          .BYTE $00
     BF3A   00           6563          .BYTE $00
     BF3B   80           6564          .BYTE $80
     BF3C   80           6565          .BYTE $80
     BF3D   C0           6566          .BYTE $C0
     BF3E   C0           6567          .BYTE $C0
     BF3F   C0           6568          .BYTE $C0
     BF40   03           6569          .BYTE $03
     BF41   03           6570          .BYTE $03
     BF42   03           6571          .BYTE $03
     BF43   01           6572          .BYTE $01
     BF44   01           6573          .BYTE $01
     BF45   00           6574          .BYTE $00
     BF46   00           6575          .BYTE $00
     BF47   00           6576          .BYTE $00
     BF48   F0           6577          .BYTE $F0
     BF49   F0           6578          .BYTE $F0
     BF4A   F8           6579          .BYTE $F8
     BF4B   FC           6580          .BYTE $FC
     BF4C   FF           6581          .BYTE $FF
     BF4D   FF           6582          .BYTE $FF
     BF4E   FF           6583          .BYTE $FF
     BF4F   7F           6584          .BYTE $7F
     BF50   0F           6585          .BYTE $0F
     BF51   0F           6586          .BYTE $0F
     BF52   1F           6587          .BYTE $1F
     BF53   3F           6588          .BYTE $3F
     BF54   FF           6589          .BYTE $FF
     BF55   FF           6590          .BYTE $FF
     BF56   FF           6591          .BYTE $FF
     BF57   FE           6592          .BYTE $FE
     BF58   C0           6593          .BYTE $C0
     BF59   C0           6594          .BYTE $C0
     BF5A   C0           6595          .BYTE $C0
     BF5B   80           6596          .BYTE $80
     BF5C   80           6597          .BYTE $80
.MAIN.  Commodore 6502ASM V072882    Page 2-132
   JUPITERLANDER20.asm

Error Addr  Code          Seq   Source statement

     BF5D   00           6598          .BYTE $00
     BF5E   00           6599          .BYTE $00
     BF5F   00           6600          .BYTE $00
     BF60   00           6601          .BYTE $00
     BF61   00           6602          .BYTE $00
     BF62   00           6603          .BYTE $00
     BF63   00           6604          .BYTE $00
     BF64   00           6605          .BYTE $00
     BF65   00           6606          .BYTE $00
     BF66   00           6607          .BYTE $00
     BF67   00           6608          .BYTE $00
     BF68   1F           6609          .BYTE $1F
     BF69   07           6610          .BYTE $07
     BF6A   00           6611          .BYTE $00
     BF6B   00           6612          .BYTE $00
     BF6C   00           6613          .BYTE $00
     BF6D   00           6614          .BYTE $00
     BF6E   00           6615          .BYTE $00
     BF6F   00           6616          .BYTE $00
     BF70   F8           6617          .BYTE $F8
     BF71   E0           6618          .BYTE $E0
     BF72   00           6619          .BYTE $00
     BF73   00           6620          .BYTE $00
     BF74   00           6621          .BYTE $00
     BF75   00           6622          .BYTE $00
     BF76   00           6623          .BYTE $00
     BF77   00           6624          .BYTE $00
     BF78   00           6625          .BYTE $00
     BF79   00           6626          .BYTE $00
     BF7A   00           6627          .BYTE $00
     BF7B   00           6628          .BYTE $00
     BF7C   00           6629          .BYTE $00
     BF7D   00           6630          .BYTE $00
     BF7E   00           6631          .BYTE $00
     BF7F   00           6632          .BYTE $00
     BF80   00           6633          .BYTE $00
     BF81   00           6634          .BYTE $00
     BF82   01           6635          .BYTE $01
     BF83   07           6636          .BYTE $07
     BF84   0F           6637          .BYTE $0F
     BF85   1F           6638          .BYTE $1F
     BF86   1F           6639          .BYTE $1F
     BF87   3F           6640          .BYTE $3F
     BF88   1F           6641          .BYTE $1F
     BF89   7F           6642          .BYTE $7F
     BF8A   FF           6643          .BYTE $FF
     BF8B   FF           6644          .BYTE $FF
     BF8C   FF           6645          .BYTE $FF
     BF8D   FF           6646          .BYTE $FF
     BF8E   F8           6647          .BYTE $F8
.MAIN.  Commodore 6502ASM V072882    Page 2-133
   JUPITERLANDER20.asm

Error Addr  Code          Seq   Source statement

     BF8F   C7           6648          .BYTE $C7
     BF90   F8           6649          .BYTE $F8
     BF91   FE           6650          .BYTE $FE
     BF92   FF           6651          .BYTE $FF
     BF93   FF           6652          .BYTE $FF
     BF94   FF           6653          .BYTE $FF
     BF95   FF           6654          .BYTE $FF
     BF96   1F           6655          .BYTE $1F
     BF97   E3           6656          .BYTE $E3
     BF98   00           6657          .BYTE $00
     BF99   00           6658          .BYTE $00
     BF9A   80           6659          .BYTE $80
     BF9B   E0           6660          .BYTE $E0
     BF9C   F0           6661          .BYTE $F0
     BF9D   F8           6662          .BYTE $F8
     BF9E   F8           6663          .BYTE $F8
     BF9F   FC           6664          .BYTE $FC
     BFA0   3F           6665          .BYTE $3F
     BFA1   7F           6666          .BYTE $7F
     BFA2   7E           6667          .BYTE $7E
     BFA3   FE           6668          .BYTE $FE
     BFA4   FE           6669          .BYTE $FE
     BFA5   FD           6670          .BYTE $FD
     BFA6   FD           6671          .BYTE $FD
     BFA7   FD           6672          .BYTE $FD
     BFA8   9F           6673          .BYTE $9F
     BFA9   3F           6674          .BYTE $3F
     BFAA   7F           6675          .BYTE $7F
     BFAB   FF           6676          .BYTE $FF
     BFAC   FC           6677          .BYTE $FC
     BFAD   FB           6678          .BYTE $FB
     BFAE   F7           6679          .BYTE $F7
     BFAF   F7           6680          .BYTE $F7
     BFB0   F9           6681          .BYTE $F9
     BFB1   FC           6682          .BYTE $FC
     BFB2   FE           6683          .BYTE $FE
     BFB3   FF           6684          .BYTE $FF
     BFB4   3F           6685          .BYTE $3F
     BFB5   DF           6686          .BYTE $DF
     BFB6   EF           6687          .BYTE $EF
     BFB7   EF           6688          .BYTE $EF
     BFB8   FC           6689          .BYTE $FC
     BFB9   FE           6690          .BYTE $FE
     BFBA   7E           6691          .BYTE $7E
     BFBB   7F           6692          .BYTE $7F
     BFBC   7F           6693          .BYTE $7F
     BFBD   BF           6694          .BYTE $BF
     BFBE   BF           6695          .BYTE $BF
     BFBF   BF           6696          .BYTE $BF
     BFC0   FD           6697          .BYTE $FD
.MAIN.  Commodore 6502ASM V072882    Page 2-134
   JUPITERLANDER20.asm

Error Addr  Code          Seq   Source statement

     BFC1   FD           6698          .BYTE $FD
     BFC2   FD           6699          .BYTE $FD
     BFC3   FE           6700          .BYTE $FE
     BFC4   FE           6701          .BYTE $FE
     BFC5   7E           6702          .BYTE $7E
     BFC6   7F           6703          .BYTE $7F
     BFC7   3F           6704          .BYTE $3F
     BFC8   F7           6705          .BYTE $F7
     BFC9   F7           6706          .BYTE $F7
     BFCA   FB           6707          .BYTE $FB
     BFCB   FC           6708          .BYTE $FC
     BFCC   FF           6709          .BYTE $FF
     BFCD   7F           6710          .BYTE $7F
     BFCE   3F           6711          .BYTE $3F
     BFCF   9F           6712          .BYTE $9F
     BFD0   EF           6713          .BYTE $EF
     BFD1   EF           6714          .BYTE $EF
     BFD2   DF           6715          .BYTE $DF
     BFD3   3F           6716          .BYTE $3F
     BFD4   FF           6717          .BYTE $FF
     BFD5   FE           6718          .BYTE $FE
     BFD6   FC           6719          .BYTE $FC
     BFD7   F9           6720          .BYTE $F9
     BFD8   BF           6721          .BYTE $BF
     BFD9   BF           6722          .BYTE $BF
     BFDA   BF           6723          .BYTE $BF
     BFDB   7F           6724          .BYTE $7F
     BFDC   7F           6725          .BYTE $7F
     BFDD   7E           6726          .BYTE $7E
     BFDE   FE           6727          .BYTE $FE
     BFDF   FC           6728          .BYTE $FC
     BFE0   3F           6729          .BYTE $3F
     BFE1   1F           6730          .BYTE $1F
     BFE2   1F           6731          .BYTE $1F
     BFE3   0F           6732          .BYTE $0F
     BFE4   07           6733          .BYTE $07
     BFE5   01           6734          .BYTE $01
     BFE6   00           6735          .BYTE $00
     BFE7   00           6736          .BYTE $00
     BFE8   C7           6737          .BYTE $C7
     BFE9   F8           6738          .BYTE $F8
     BFEA   FF           6739          .BYTE $FF
     BFEB   FF           6740          .BYTE $FF
     BFEC   FF           6741          .BYTE $FF
     BFED   FF           6742          .BYTE $FF
     BFEE   7F           6743          .BYTE $7F
     BFEF   1F           6744          .BYTE $1F
     BFF0   E3           6745          .BYTE $E3
     BFF1   1F           6746          .BYTE $1F
     BFF2   FF           6747          .BYTE $FF
.MAIN.  Commodore 6502ASM V072882    Page 2-135
   JUPITERLANDER20.asm

Error Addr  Code          Seq   Source statement

     BFF3   FF           6748          .BYTE $FF
     BFF4   FF           6749          .BYTE $FF
     BFF5   FF           6750          .BYTE $FF
     BFF6   FE           6751          .BYTE $FE
     BFF7   F8           6752          .BYTE $F8
     BFF8   FC           6753          .BYTE $FC
     BFF9   F8           6754          .BYTE $F8
     BFFA   F8           6755          .BYTE $F8
     BFFB   F0           6756          .BYTE $F0
     BFFC   E0           6757          .BYTE $E0
     BFFD   80           6758          .BYTE $80
     BFFE   00           6759          .BYTE $00
     BFFF   00           6760          .BYTE $00
                         6761   ;********************************
                         6762   ;
                         6763   ;********************************
                         6764   ;.END

Errors detected in 0 lines.

 value name                            cross reference

S 0000 A                               
  B0D3 DELAY                             2870#  2862?
  B0CC DELAY1                            2864   2862#  2370?  2365?  2328?  2319?  2310?  2301?  2292?  2283?  2274?  2265?  2257?
                                         2249?  2241?  2231?  1716?  1701?  1690?  1686?  1650?  1521?  1495?  1467?  1447?  1436?
                                          481?   247?
= FF8A RESTOR                              69     14#
= 0020 SCNID                              252#
= 0001 TUNE1                              209      6#
= 0001 TUNE2                             1643      7#
= 0001 TUNE3                             1709      8#
= 900A VICCRA                            1595$  1529$  1392$  1385$  1351$  1314$   581$   543$    18#
= 900B VICCRB                            1596$  1530$  1393$  1386$  1352$  1315$   524$    19#
= 900C VICCRC                            1710$  1688$  1684$  1644$  1597$  1531$  1394$  1387$  1353$  1316$   479$    20#
= 900E VICCRE                            1936$  1400$  1382$  1346$   126$    22#
= 900F VICCRF                            2333$  1941$   129$    23#
= 900D VICRD                             1598$  1532$  1395$  1388$  1354$  1317$   579$   544$    21#
  A00F XXA00F                              74     46#
  A01F XXA01F                              65#    27?
  A029 XXA029                              77     74#
  A072 XXA072                            1468    118#
  A075 XXA075                            2429    122#
  A09E XXA09E                            1702    145#
  A0A5 XXA0A5                             149#   147?
  A0BE XXA0BE                            1443    176#   152?
  A0FE XXA0FE                             248    219#
  A108 XXA108                             226#   221?
  A10F XXA10F                             232#   227?
  A122 XXA122                             243#   238?   235?
  A12A XXA12A                             247#   245?
  A130 XXA130                            2362   1602   1405   1374   1342    253#   219?   205?
  A144 XXA144                             262#   255?
  A15B XXA15B                             278#   263?
  A172 XXA16D                             294#
  A170 XXA170                             292#   284?
  A174 XXA174                             301#   253?
  A18B XXA18B                             316#   310?   305?
  A1AC XXA1AC                             336#   330?   325?   320?
  A1C3 XXA1C3                             351#   345?   340?
  A1C6 XXA1C6                             478    357#
  A239 XXA239                             475#   210?
  A23F XXA23F                             484    478#
  A253 XXA253                             487#   476?
  A254 XXA254                             491#   232?
  A257 XXA257                            2361    492#
  A25F XXA25F                             496#   493?
  A273 XXA273                             506#   503?
  A293 XXA293                             524#   522?   498?
  A2AD XXA2AD                             538#   536?
  A2BE XXA2BE                             546#   542?
  A2D1 XXA2D1                             557#   554?   550?
  A2FE XXA2FE                             582#   545?
  A322 XXA322                             602#   600?
  A328 XXA328                             609#   274?
  A34A XXA34A                             638    625#
  A34C XXA34C                             631    626#
  A360 XXA360                             637#   635?
  A364 XXA364                             639#   620?
  A378 XXA378                             651    648#
  A389 XXA389                             685    656#
  A38B XXA38B                             676    657#
  A3A1 XXA3A1                             669#   666?   660?
  A3B9 XXA3B9                             684#   682?
  A3BE XXA3BE                            2316   2307   2298   2289   2280   2271   2262   2254   2246   2238   2228    690#   286?
                                       
  A3E0 XXA3E0                             719    706#
  A3E2 XXA3E2                             712    707#
  A3F6 XXA3F6                             718#   716?
  A3FA XXA3FA                             720#   701?
  A40E XXA40E                             732    729#
  A41F XXA41F                             766    737#
  A421 XXA421                             757    738#
  A437 XXA437                             750#   747?   741?
  A44F XXA44F                             765#   763?
  A460 XXA460                             778    774#   772?
  A46E XXA46E                             781#   776?   768?
  A46F XXA46F                            1333    785#   727?   702?   646?   621?
  A48D XXA48D                             803#   801?
  A48E XXA48E                             807#   790?
  A494 XXA494                            2581    813#
  A4A9 XXA4A9                             834#   792?
  A4AF XXA4AF                            2583    840#
  A4C4 XXA4C4                             864#   618?
  A4E5 XXA4E5                             914    884#
  A503 XXA503                             907    903#
  A50B XXA50B                             908#   902?
  A51D XXA51D                             946    916#
  A53B XXA53B                             938    934#
  A543 XXA543                             939#   933?
  A559 XXA559                             951    949#
  A567 XXA567                             976    974    957#
  A56F XXA56F                             961#   958?
  A573 XXA573                             964#   960?
  A58E XXA58E                             977#   972?
  A58F XXA58F                             981#   699?
  A5B2 XXA5B2                            1052   1003#
  A5E8 XXA5E8                            1041   1035#
  A5F4 XXA5F4                            1042#  1034?
  A610 XXA610                            1104   1054#
  A646 XXA646                            1092   1086#
  A652 XXA652                            1093#  1085?
  A670 XXA670                            1156   1106#
  A6A6 XXA6A6                            1144   1138#
  A6B2 XXA6B2                            1145#  1137?
  A6D0 XXA6D0                            1208   1158#
  A706 XXA706                            1196   1190#
  A712 XXA712                            1197#  1189?
  A732 XXA732                            1213   1211#
  A740 XXA740                            1254   1252   1250   1246   1219#
  A750 XXA750                            1227#  1224?  1222?  1220?
  A754 XXA754                            1230#  1226?
  A779 XXA779                            1247#  1244?
  A781 XXA781                            1251#  1248?
  A789 XXA789                            1255#  1242?
  A78A XXA78A                            1259#   746?   665?
  A7C0 XXA7C0                            1295   1291#
  A7CA XXA7CA                            1297#  1293?  1289?
  A7CD XXA7CD                            1303   1299#
  A7DC XXA7DC                            2368   1727   1313#   222?
  A7FA XXA7FA                            1327#  1320?
  A804 XXA804                            1332#  1326?
  A818 XXA818                            1363   1342#
  A82B XXA82B                            1351#  1349?
  A845 XXA845                            1362#  1360?
  A851 XXA851                            1390   1368#
  A85C XXA85C                            1374#  1372?
  A86D XXA86D                            1382#  1380?
  A899 XXA899                            1400#  1398?
  A8AC XXA8AC                            1412#  1407?
  A8BA XXA8BA                            1419#  1414?
  A8BE XXA8BE                            1421#  1418?
  A8D1 XXA8D1                            1433#  1431?
  A8D6 XXA8D6                            1539   1435#
  A8E2 XXA8E2                            1446#  1438?
  A8FC XXA8FC                            1464#  1452?
  A908 XXA908                            1472#  1375?  1355?
  A910 XXA910                            1497   1476#
  A916 XXA916                            1493   1479#
  A918 XXA918                            1487   1480#
  A938 XXA938                            1523   1502#  1475?
  A93E XXA93E                            1519   1505#
  A940 XXA940                            1513   1506#
  A960 XXA960                            1528#   239?
  A973 XXA973                            1538   1535#
  A97F XXA97F                            1543#  1535?
  A989 XXA989                            1561#  1465?
  A98B XXA98B                            1569   1562#
  A9A0 XXA9A0                            1577   1574#
  A9AA XXA9AA                            1582#  1574?
  A9B3 XXA9B3                            1594#   228?
  A9D4 XXA9D4                            1611#  1606?
  A9D7 XXA9D7                            1615#  1609?  1605?
  A9E7 XXA9E7                            1624#  1622?
  A9F9 XXA9F9                            1634#  1632?  1625?
  AA00 XXAA00                            1653   1641#
  AA10 XXAA10                            1699   1657#
  AA35 XXAA35                            1683#  1676?
  AA62 XXAA62                            1706#  1611?
  AA64 XXAA64                            1719   1707#
  AA79 XXAA79                            1726   1723#
  AA85 XXAA85                            1732#  1707?
  AAB1 XXAAB1                            1779#  1723?
  AABF XXAABF                            1803#  1641?
  AADF XXAADF                            2931   1854   1838#  1721?  1533?
  AAE3 XXAAE3                            1842   1840#
  AAED XXAAED                            1849   1845#
  AAFA XXAAFA                            1854#  1635?
  AB04 XXAB04                            1862   1859#
  AB19 XXAB19                            1870#  1867?
  AB2F XXAB2F                            1880#  1876?
  AB39 XXAB39                            1885#  1881?
  AB43 XXAB43                            1889#  1884?  1879?
  AB4E XXAB4E                            1902   1894#
  AB65 XXAB65                            1909#  1906?
  AB68 XXAB68                            1914   1911#
  AB83 XXAB83                            1929#   118?
  AB9B XXAB9B                            2371   1940#
  ABAA XXABAA                            1961   1949#
  ABAC XXABAC                            1953   1950#
  ABBE XXABBE                            1960#  1958?
  ABCB XXABCB                            1981   1969#
  ABCD XXABCD                            1973   1970#
  ABDF XXABDF                            1980#  1978?
  ABEC XXABEC                            2000   1988#
  ABEE XXABEE                            1992   1989#
  AC00 XXAC00                            1999#  1997?
  AC05 XXAC05                            2012   2005#
  AC21 XXAC21                            2023#  2015?
  AC23 XXAC23                            2029   2024#
  AC34 XXAC34                            2034#  2005?
  AC4A XXAC4A                            2059#  2007?
  AC60 XXAC60                            2087#  2009?
  AC76 XXAC76                            2116#  2024?
  AC8C XXAC8C                            2144#  2026?
  ACA2 XXACA2                            2171#  2030?  2019?
  AD1D XXAD1D                            2323   2234#
  ADE0 XXADE0                            2327#  2321?
  AE27 XXAE27                            2367   2361#
  AE44 XXAE44                            2375#  2352?
  AE48 XXAE48                            2379#  2354?
  AE51 XXAE51                            2402   2388#
  AE57 XXAE57                            2395   2393#
  AE6B XXAE6B                            2409   2406#
  AE74 XXAE74                            2410#  2403?  2400?
  AE91 XXAE91                            2423#  2417?  2411?
  AEA1 XXAEA1                            2433#  2426?
  AEA7 XXAEA7                            2442#  2388?
  AEAA XXAEAA                            2448#  2399?
  AEAD XXAEAD                            2454#   491?
  AEB1 XXAEB1                            2474   2456#
  AEB7 XXAEB7                            2463   2461#
  AEC5 XXAEC5                            2488   2473#  2468?
  AED3 XXAED3                            2494   2486#
  AEE3 XXAEE3                            2493#  2491?
  AEE9 XXAEE9                            2500#  2456?
  AEEC XXAEEC                            2506#  2469?
  AEEF XXAEEF                            2512#  2490?
  AEF1 XXAEF1                            2515#  2492?
  AEF3 XXAEF3                            2520#  2210?  1679?  1434?   233?   201?
  AF00 XXAF00                            2532   2530#
  AF06 XXAF06                            2533#  2528?
  AF11 XXAF11                            2543   2539#
  AF1B XXAF1B                            2544#  2540?  2363?
  AF25 XXAF25                            2549#  2546?
  AF3C XXAF3C                            2571   2562#
  AF49 XXAF49                            2570#  2568?
  AF6A XXAF6A                            2591#  2548?
  AF6B XXAF6B                            2601#   257?
  AF8B XXAF8B                            2655   2652   2616#
  AF8F XXAF8F                            2647   2618#
  AF96 XXAF96                            2625#  2620?
  AFA1 XXAFA1                            2632#  2630?
  AFA3 XXAFA3                            2645   2633#
  AFAE XXAFAE                            2639#  2637?
  AFBD XXAFBD                            2648#  2642?
  AFCD XXAFCD                            2660#  2602?
  AFD1 XXAFD1                            2665#  2604?
  AFD5 XXAFD5                            2819   2672#
  B003 XXB003                            2827   2721#
  B031 XXB031                            2774#   116?
  B033 XXB033                            2779   2775#
  B03E XXB03E                            2784   2781#
  B049 XXB049                            2790   2787#
  B054 XXB054                            2796   2793#
  B05D XXB05D                            2798#   127?
  B06D XXB06D                            2815   2806#
  B076 XXB076                            2812#  2810?
  B084 XXB084                            2822   2819#
  B08F XXB08F                            2830   2827#
  B0B3 XXB0B3                            2846   2844#
  B0BB XXB0BB                            2851   2849#
  B0DA XXB0DA                            2880   2876#
  B0DC XXB0DC                            2878   2877#
  B0E8 XXB0E8                            2891#  1669?  1460?   141?
  B0FD XXB0FD                            2901#  2895?
  B103 XXB103                            2905#  2903?
  B10C XXB10C                            2912#  2910?
  B114 XXB114                            2916#  2913?
  B11C XXB11C                            2920#  2915?
  B11E XXB11E                            2925#   726?   645?
  B12F XXB12F                            2939   2936#
  B138 XXB138                            2940#  2928?  2926?
  B139 XXB139                            2944#  2936?
  B8C4 XXB8C4                            4885#  2787?
  B9C4 XXB9C4                            5144#  2793?
  BA44 XXBA44                            5275#  2406?
  BD7F YYBD7F                            6114#
  A000 ZZ8000                              27#
  A002 ZZ8002                              28#
  A009 ZZA009                              37#    28?
  A0AC ZZA0AC                             152#   150?
  A0AE ZZA0AE                             157#
  A16B ZZA16B                             286#
  A16E ZZA16E                             290#   280?
  AE4C ZZAE4C                            2386#
  B144 ZZB144                            2959#
  B344 ZZB8C4                            3474#
  BA64 ZZBA64                            5310#  2665?  2660?
  BB79 ZZBB79                            5590#  2666?  2661?
  BC2A ZZBC2A                            5770#  2667?  2662?
  BCB7 ZZBCB7                            5914#  2668?  2663?
  BD80 ZZBD80                            6118#
  BE00 ZZBE00                            6249#

Memory used to store 0 local symbols: 0. bytes.

Memory used to store 279 permanent symbols: 10882. bytes.

Memory used for cross reference table: 10800. bytes.

No macros defined.
